

Microchip MPLAB XC8 Assembler V2.10 build 88905656 
                                                                                               Fri Dec 27 00:38:54 2019

Microchip MPLAB XC8 C Compiler v2.10 (Free license) build 20190730164152 Og1 
     1                           	processor	16F887
     2                           	opt	pw 120
     3                           	opt	flic
     4                           	psect	idataBANK0,global,class=CODE,delta=2
     5                           	psect	idataBANK1,global,class=CODE,delta=2
     6                           	psect	cinit,global,class=CODE,merge=1,delta=2
     7                           	psect	dataBANK0,global,class=BANK0,space=1,delta=1
     8                           	psect	dataBANK1,global,class=BANK1,space=1,delta=1
     9                           	psect	inittext,global,class=CODE,delta=2
    10                           	psect	cstackCOMMON,global,class=COMMON,space=1,delta=1
    11                           	psect	cstackBANK0,global,class=BANK0,space=1,delta=1
    12                           	psect	maintext,global,class=CODE,split=1,delta=2
    13                           	psect	text1,local,class=CODE,merge=1,delta=2
    14                           	psect	text2,local,class=CODE,merge=1,delta=2
    15                           	psect	text3,local,class=CODE,merge=1,delta=2
    16                           	psect	text4,local,class=CODE,merge=1,delta=2
    17                           	psect	text5,local,class=CODE,merge=1,delta=2
    18                           	psect	text6,local,class=CODE,merge=1,delta=2
    19                           	psect	text7,local,class=CODE,merge=1,delta=2,group=1
    20                           	psect	text8,local,class=CODE,merge=1,delta=2,group=1
    21                           	psect	text9,local,class=CODE,merge=1,delta=2,group=1
    22                           	psect	text10,local,class=CODE,merge=1,delta=2,group=1
    23                           	psect	text11,local,class=CODE,merge=1,delta=2,group=1
    24                           	psect	text12,local,class=CODE,merge=1,delta=2,group=1
    25                           	psect	text13,local,class=CODE,merge=1,delta=2,group=1
    26                           	psect	text14,local,class=CODE,merge=1,delta=2,group=1
    27                           	psect	text15,local,class=CODE,merge=1,delta=2,group=1
    28                           	dabs	1,0x7E,2
    29  0000                     
    30                           ; Version 2.10
    31                           ; Generated 31/07/2019 GMT
    32                           ; 
    33                           ; Copyright © 2019, Microchip Technology Inc. and its subsidiaries ("Microchip")
    34                           ; All rights reserved.
    35                           ; 
    36                           ; This software is developed by Microchip Technology Inc. and its subsidiaries ("Microch
      +                          ip").
    37                           ; 
    38                           ; Redistribution and use in source and binary forms, with or without modification, are
    39                           ; permitted provided that the following conditions are met:
    40                           ; 
    41                           ;     1. Redistributions of source code must retain the above copyright notice, this lis
      +                          t of
    42                           ;        conditions and the following disclaimer.
    43                           ; 
    44                           ;     2. Redistributions in binary form must reproduce the above copyright notice, this 
      +                          list
    45                           ;        of conditions and the following disclaimer in the documentation and/or other
    46                           ;        materials provided with the distribution.
    47                           ; 
    48                           ;     3. Microchip's name may not be used to endorse or promote products derived from th
      +                          is
    49                           ;        software without specific prior written permission.
    50                           ; 
    51                           ; THIS SOFTWARE IS PROVIDED BY MICROCHIP "AS IS" AND ANY EXPRESS OR IMPLIED WARRANTIES,
    52                           ; INCLUDING, BUT NOT LIMITED TO, THE IMPLIED WARRANTIES OF MERCHANTABILITY AND FITNESS F
      +                          OR
    53                           ; PURPOSE ARE DISCLAIMED.  IN NO EVENT SHALL MICROCHIP BE LIABLE FOR ANY DIRECT, INDIREC
      +                          T,
    54                           ; INCIDENTAL, SPECIAL, EXEMPLARY, OR CONSEQUENTIAL DAMAGES (INCLUDING BUT NOT LIMITED TO
    55                           ; PROCUREMENT OF SUBSTITUTE GOODS OR SERVICES; LOSS OF USE, DATA OR PROFITS; OR BUSINESS
    56                           ; INTERRUPTION) HOWSOEVER CAUSED AND ON ANY THEORY OF LIABILITY, WHETHER IN CONTRACT, ST
      +                          RICT
    57                           ; LIABILITY, OR TORT (INCLUDING NEGLIGENCE OR OTHERWISE) ARISING IN ANY WAY OUT OF THE U
      +                          SE OF
    58                           ; THIS SOFTWARE, EVEN IF ADVISED OF THE POSSIBILITY OF SUCH DAMAGE.
    59                           ; 
    60                           ; 
    61                           ; Code-generator required, PIC16F887 Definitions
    62                           ; 
    63                           ; SFR Addresses
    64  0000                     	;# 
    65  0001                     	;# 
    66  0002                     	;# 
    67  0003                     	;# 
    68  0004                     	;# 
    69  0005                     	;# 
    70  0006                     	;# 
    71  0007                     	;# 
    72  0008                     	;# 
    73  0009                     	;# 
    74  000A                     	;# 
    75  000B                     	;# 
    76  000C                     	;# 
    77  000D                     	;# 
    78  000E                     	;# 
    79  000E                     	;# 
    80  000F                     	;# 
    81  0010                     	;# 
    82  0011                     	;# 
    83  0012                     	;# 
    84  0013                     	;# 
    85  0014                     	;# 
    86  0015                     	;# 
    87  0015                     	;# 
    88  0016                     	;# 
    89  0017                     	;# 
    90  0018                     	;# 
    91  0019                     	;# 
    92  001A                     	;# 
    93  001B                     	;# 
    94  001B                     	;# 
    95  001C                     	;# 
    96  001D                     	;# 
    97  001E                     	;# 
    98  001F                     	;# 
    99  0081                     	;# 
   100  0085                     	;# 
   101  0086                     	;# 
   102  0087                     	;# 
   103  0088                     	;# 
   104  0089                     	;# 
   105  008C                     	;# 
   106  008D                     	;# 
   107  008E                     	;# 
   108  008F                     	;# 
   109  0090                     	;# 
   110  0091                     	;# 
   111  0092                     	;# 
   112  0093                     	;# 
   113  0093                     	;# 
   114  0093                     	;# 
   115  0094                     	;# 
   116  0095                     	;# 
   117  0096                     	;# 
   118  0097                     	;# 
   119  0098                     	;# 
   120  0099                     	;# 
   121  009A                     	;# 
   122  009B                     	;# 
   123  009C                     	;# 
   124  009D                     	;# 
   125  009E                     	;# 
   126  009F                     	;# 
   127  0105                     	;# 
   128  0107                     	;# 
   129  0108                     	;# 
   130  0109                     	;# 
   131  010C                     	;# 
   132  010C                     	;# 
   133  010D                     	;# 
   134  010E                     	;# 
   135  010F                     	;# 
   136  0185                     	;# 
   137  0187                     	;# 
   138  0188                     	;# 
   139  0189                     	;# 
   140  018C                     	;# 
   141  018D                     	;# 
   142  0000                     	;# 
   143  0001                     	;# 
   144  0002                     	;# 
   145  0003                     	;# 
   146  0004                     	;# 
   147  0005                     	;# 
   148  0006                     	;# 
   149  0007                     	;# 
   150  0008                     	;# 
   151  0009                     	;# 
   152  000A                     	;# 
   153  000B                     	;# 
   154  000C                     	;# 
   155  000D                     	;# 
   156  000E                     	;# 
   157  000E                     	;# 
   158  000F                     	;# 
   159  0010                     	;# 
   160  0011                     	;# 
   161  0012                     	;# 
   162  0013                     	;# 
   163  0014                     	;# 
   164  0015                     	;# 
   165  0015                     	;# 
   166  0016                     	;# 
   167  0017                     	;# 
   168  0018                     	;# 
   169  0019                     	;# 
   170  001A                     	;# 
   171  001B                     	;# 
   172  001B                     	;# 
   173  001C                     	;# 
   174  001D                     	;# 
   175  001E                     	;# 
   176  001F                     	;# 
   177  0081                     	;# 
   178  0085                     	;# 
   179  0086                     	;# 
   180  0087                     	;# 
   181  0088                     	;# 
   182  0089                     	;# 
   183  008C                     	;# 
   184  008D                     	;# 
   185  008E                     	;# 
   186  008F                     	;# 
   187  0090                     	;# 
   188  0091                     	;# 
   189  0092                     	;# 
   190  0093                     	;# 
   191  0093                     	;# 
   192  0093                     	;# 
   193  0094                     	;# 
   194  0095                     	;# 
   195  0096                     	;# 
   196  0097                     	;# 
   197  0098                     	;# 
   198  0099                     	;# 
   199  009A                     	;# 
   200  009B                     	;# 
   201  009C                     	;# 
   202  009D                     	;# 
   203  009E                     	;# 
   204  009F                     	;# 
   205  0105                     	;# 
   206  0107                     	;# 
   207  0108                     	;# 
   208  0109                     	;# 
   209  010C                     	;# 
   210  010C                     	;# 
   211  010D                     	;# 
   212  010E                     	;# 
   213  010F                     	;# 
   214  0185                     	;# 
   215  0187                     	;# 
   216  0188                     	;# 
   217  0189                     	;# 
   218  018C                     	;# 
   219  018D                     	;# 
   220                           
   221                           	psect	idataBANK0
   222  0A5E                     __pidataBANK0:	
   223                           
   224                           ;initializer for _s2
   225  0A5E  344F               	retlw	79
   226  0A5F  3450               	retlw	80
   227  0A60  3445               	retlw	69
   228  0A61  3452               	retlw	82
   229  0A62  3441               	retlw	65
   230  0A63  3454               	retlw	84
   231  0A64  344F               	retlw	79
   232  0A65  3452               	retlw	82
   233  0A66  3420               	retlw	32
   234  0A67  343D               	retlw	61
   235  0A68  3420               	retlw	32
   236  0A69  3400               	retlw	0
   237                           
   238                           	psect	idataBANK1
   239  0007                     __pidataBANK1:	
   240                           
   241                           ;initializer for _s3
   242  0007  342A               	retlw	42
   243  0008  342A               	retlw	42
   244  0009  342A               	retlw	42
   245  000A  3452               	retlw	82
   246  000B  3445               	retlw	69
   247  000C  3453               	retlw	83
   248  000D  3455               	retlw	85
   249  000E  344C               	retlw	76
   250  000F  3454               	retlw	84
   251  0010  342A               	retlw	42
   252  0011  342A               	retlw	42
   253  0012  342A               	retlw	42
   254  0013  3400               	retlw	0
   255                           
   256                           ;initializer for _s1
   257  0014  3445               	retlw	69
   258  0015  344E               	retlw	78
   259  0016  3454               	retlw	84
   260  0017  3445               	retlw	69
   261  0018  3452               	retlw	82
   262  0019  3420               	retlw	32
   263  001A  3432               	retlw	50
   264  001B  3420               	retlw	32
   265  001C  344E               	retlw	78
   266  001D  344F               	retlw	79
   267  001E  343D               	retlw	61
   268  001F  3420               	retlw	32
   269  0020  3400               	retlw	0
   270                           
   271                           ;initializer for _s
   272  0021  3445               	retlw	69
   273  0022  344E               	retlw	78
   274  0023  3454               	retlw	84
   275  0024  3445               	retlw	69
   276  0025  3452               	retlw	82
   277  0026  3420               	retlw	32
   278  0027  3431               	retlw	49
   279  0028  3420               	retlw	32
   280  0029  344E               	retlw	78
   281  002A  344F               	retlw	79
   282  002B  343D               	retlw	61
   283  002C  3420               	retlw	32
   284  002D  3400               	retlw	0
   285  0006                     _PORTB	set	6
   286  0007                     _PORTC	set	7
   287  003F                     _RC7	set	63
   288  003E                     _RC6	set	62
   289  003D                     _RC5	set	61
   290  003C                     _RC4	set	60
   291  003B                     _RC3	set	59
   292  003A                     _RC2	set	58
   293  0039                     _RC1	set	57
   294  0038                     _RC0	set	56
   295  0047                     _RD7	set	71
   296  0046                     _RD6	set	70
   297  0086                     _TRISB	set	134
   298  0087                     _TRISC	set	135
   299  0447                     _TRISD7	set	1095
   300  0446                     _TRISD6	set	1094
   301                           
   302                           	psect	cinit
   303  07E1                     start_initialization:	
   304                           ; #config settings
   305                           
   306  07E1                     __initialization:	
   307                           
   308                           ; Initialize objects allocated to BANK1
   309  07E1  1383               	bcf	3,7	;select IRP bank0
   310  07E2  30C7               	movlw	low (__pdataBANK1+39)
   311  07E3  00FD               	movwf	btemp+-1
   312  07E4  3000               	movlw	high __pidataBANK1
   313  07E5  00FE               	movwf	btemp
   314  07E6  3007               	movlw	low __pidataBANK1
   315  07E7  00FF               	movwf	btemp+1
   316  07E8  30A0               	movlw	low __pdataBANK1
   317  07E9  0084               	movwf	4
   318  07EA  120A  158A  226E  120A  118A  	fcall	init_ram0
   319                           
   320                           ; Initialize objects allocated to BANK0
   321  07EF  3066               	movlw	low (__pdataBANK0+12)
   322  07F0  00FD               	movwf	btemp+-1
   323  07F1  300A               	movlw	high __pidataBANK0
   324  07F2  00FE               	movwf	btemp
   325  07F3  305E               	movlw	low __pidataBANK0
   326  07F4  00FF               	movwf	btemp+1
   327  07F5  305A               	movlw	low __pdataBANK0
   328  07F6  0084               	movwf	4
   329  07F7  120A  158A  226E  120A  118A  	fcall	init_ram0
   330  07FC                     end_of_initialization:	
   331                           ;End of C runtime variable initialization code
   332                           
   333  07FC                     __end_of__initialization:	
   334  07FC  0183               	clrf	3
   335  07FD  120A  118A  2A95   	ljmp	_main	;jump to C main() function
   336                           
   337                           	psect	dataBANK0
   338  005A                     __pdataBANK0:	
   339  005A                     _s2:	
   340  005A                     	ds	12
   341                           
   342                           	psect	dataBANK1
   343  00A0                     __pdataBANK1:	
   344  00A0                     _s3:	
   345  00A0                     	ds	13
   346  00AD                     _s1:	
   347  00AD                     	ds	13
   348  00BA                     _s:	
   349  00BA                     	ds	13
   350                           
   351                           	psect	inittext
   352  0A6A                     init_fetch0:	
   353                           ;	Called with low address in FSR and high address in W
   354                           
   355  0A6A  087E               	movf	btemp,w
   356  0A6B  008A               	movwf	10
   357  0A6C  087F               	movf	btemp+1,w
   358  0A6D  0082               	movwf	2
   359  0A6E                     init_ram0:	
   360                           ;Called with:
   361                           ;	high address of idata address in btemp 
   362                           ;	low address of idata address in btemp+1 
   363                           ;	low address of data in FSR
   364                           ;	high address + 1 of data in btemp-1
   365                           
   366  0A6E  120A  158A  226A  120A  158A  	fcall	init_fetch0
   367  0A73  0080               	movwf	0
   368  0A74  0A84               	incf	4,f
   369  0A75  0804               	movf	4,w
   370  0A76  067D               	xorwf	btemp+-1,w
   371  0A77  1903               	btfsc	3,2
   372  0A78  3400               	retlw	0
   373  0A79  0AFF               	incf	btemp+1,f
   374  0A7A  1903               	btfsc	3,2
   375  0A7B  0AFE               	incf	btemp,f
   376  0A7C  2A6E               	goto	init_ram0
   377                           
   378                           	psect	cstackCOMMON
   379  0070                     __pcstackCOMMON:	
   380  0070                     ?_lcdcmd:	
   381  0070                     ??_lcdcmd:	
   382                           ; 1 bytes @ 0x0
   383                           
   384  0070                     ?_lcddata:	
   385                           ; 1 bytes @ 0x0
   386                           
   387  0070                     ??_lcddata:	
   388                           ; 1 bytes @ 0x0
   389                           
   390  0070                     ?_scan_key:	
   391                           ; 1 bytes @ 0x0
   392                           
   393  0070                     ?_lcdinit:	
   394                           ; 1 bytes @ 0x0
   395                           
   396  0070                     ?_main:	
   397                           ; 1 bytes @ 0x0
   398                           
   399  0070                     ?___bmul:	
   400                           ; 1 bytes @ 0x0
   401                           
   402  0070                     ?_get_num:	
   403                           ; 1 bytes @ 0x0
   404                           
   405  0070                     ?__Umul8_16:	
   406                           ; 2 bytes @ 0x0
   407                           
   408  0070                     ?___wmul:	
   409                           ; 2 bytes @ 0x0
   410                           
   411  0070                     ?___awdiv:	
   412                           ; 2 bytes @ 0x0
   413                           
   414  0070                     ?___awmod:	
   415                           ; 2 bytes @ 0x0
   416                           
   417  0070                     ___bmul@multiplicand:	
   418                           ; 2 bytes @ 0x0
   419                           
   420  0070                     __Umul8_16@multiplicand:	
   421                           ; 1 bytes @ 0x0
   422                           
   423  0070                     ___wmul@multiplier:	
   424                           ; 1 bytes @ 0x0
   425                           
   426  0070                     ___awdiv@divisor:	
   427                           ; 2 bytes @ 0x0
   428                           
   429  0070                     ___awmod@divisor:	
   430                           ; 2 bytes @ 0x0
   431                           
   432                           
   433                           ; 2 bytes @ 0x0
   434  0070                     	ds	1
   435  0071                     ??___bmul:	
   436                           
   437                           ; 1 bytes @ 0x1
   438  0071                     	ds	1
   439  0072                     ??_get_num:	
   440  0072                     ??__Umul8_16:	
   441                           ; 1 bytes @ 0x2
   442                           
   443  0072                     ___bmul@product:	
   444                           ; 1 bytes @ 0x2
   445                           
   446  0072                     ___wmul@multiplicand:	
   447                           ; 1 bytes @ 0x2
   448                           
   449  0072                     ___awdiv@dividend:	
   450                           ; 2 bytes @ 0x2
   451                           
   452  0072                     ___awmod@dividend:	
   453                           ; 2 bytes @ 0x2
   454                           
   455                           
   456                           ; 2 bytes @ 0x2
   457  0072                     	ds	1
   458  0073                     lcdcmd@value:	
   459  0073                     lcddata@value:	
   460                           ; 1 bytes @ 0x3
   461                           
   462  0073                     ___bmul@multiplier:	
   463                           ; 1 bytes @ 0x3
   464                           
   465                           
   466                           ; 1 bytes @ 0x3
   467  0073                     	ds	1
   468  0074                     ??_scan_key:	
   469  0074                     ??_lcdinit:	
   470                           ; 1 bytes @ 0x4
   471                           
   472  0074                     ??___wmul:	
   473                           ; 1 bytes @ 0x4
   474                           
   475  0074                     ??___awdiv:	
   476                           ; 1 bytes @ 0x4
   477                           
   478  0074                     ??___awmod:	
   479                           ; 1 bytes @ 0x4
   480                           
   481  0074                     get_num@ch:	
   482                           ; 1 bytes @ 0x4
   483                           
   484  0074                     ___wmul@product:	
   485                           ; 1 bytes @ 0x4
   486                           
   487  0074                     __Umul8_16@product:	
   488                           ; 2 bytes @ 0x4
   489                           
   490                           
   491                           ; 2 bytes @ 0x4
   492  0074                     	ds	1
   493  0075                     ___awdiv@counter:	
   494  0075                     ___awmod@counter:	
   495                           ; 1 bytes @ 0x5
   496                           
   497                           
   498                           ; 1 bytes @ 0x5
   499  0075                     	ds	1
   500  0076                     ?___xxtofl:	
   501  0076                     ___awdiv@sign:	
   502                           ; 4 bytes @ 0x6
   503                           
   504  0076                     ___awmod@sign:	
   505                           ; 1 bytes @ 0x6
   506                           
   507  0076                     __Umul8_16@word_mpld:	
   508                           ; 1 bytes @ 0x6
   509                           
   510  0076                     ___xxtofl@val:	
   511                           ; 2 bytes @ 0x6
   512                           
   513                           
   514                           ; 4 bytes @ 0x6
   515  0076                     	ds	1
   516  0077                     scan_key@d:	
   517  0077                     ___awdiv@quotient:	
   518                           ; 1 bytes @ 0x7
   519                           
   520                           
   521                           ; 2 bytes @ 0x7
   522  0077                     	ds	1
   523  0078                     scan_key@c:	
   524  0078                     __Umul8_16@multiplier:	
   525                           ; 1 bytes @ 0x8
   526                           
   527                           
   528                           ; 1 bytes @ 0x8
   529  0078                     	ds	1
   530  0079                     ??___flmul:	
   531                           
   532                           ; 1 bytes @ 0x9
   533  0079                     	ds	1
   534  007A                     ??___xxtofl:	
   535                           
   536                           ; 1 bytes @ 0xA
   537  007A                     	ds	4
   538                           
   539                           	psect	cstackBANK0
   540  0020                     __pcstackBANK0:	
   541  0020                     ?___flmul:	
   542  0020                     ___xxtofl@sign:	
   543                           ; 4 bytes @ 0x0
   544                           
   545  0020                     ___flmul@b:	
   546                           ; 1 bytes @ 0x0
   547                           
   548                           
   549                           ; 4 bytes @ 0x0
   550  0020                     	ds	1
   551  0021                     ___xxtofl@exp:	
   552                           
   553                           ; 1 bytes @ 0x1
   554  0021                     	ds	1
   555  0022                     ___xxtofl@arg:	
   556                           
   557                           ; 4 bytes @ 0x2
   558  0022                     	ds	2
   559  0024                     ___flmul@a:	
   560                           
   561                           ; 4 bytes @ 0x4
   562  0024                     	ds	2
   563  0026                     ?___fldiv:	
   564  0026                     ___fldiv@a:	
   565                           ; 4 bytes @ 0x6
   566                           
   567                           
   568                           ; 4 bytes @ 0x6
   569  0026                     	ds	2
   570  0028                     ___flmul@sign:	
   571                           
   572                           ; 1 bytes @ 0x8
   573  0028                     	ds	1
   574  0029                     ___flmul@grs:	
   575                           
   576                           ; 4 bytes @ 0x9
   577  0029                     	ds	1
   578  002A                     ___fldiv@b:	
   579                           
   580                           ; 4 bytes @ 0xA
   581  002A                     	ds	3
   582  002D                     ___flmul@aexp:	
   583                           
   584                           ; 1 bytes @ 0xD
   585  002D                     	ds	1
   586  002E                     ??___fldiv:	
   587  002E                     ___flmul@bexp:	
   588                           ; 1 bytes @ 0xE
   589                           
   590                           
   591                           ; 1 bytes @ 0xE
   592  002E                     	ds	1
   593  002F                     ___flmul@prod:	
   594                           
   595                           ; 4 bytes @ 0xF
   596  002F                     	ds	4
   597  0033                     ___flmul@temp:	
   598  0033                     ___fldiv@rem:	
   599                           ; 2 bytes @ 0x13
   600                           
   601                           
   602                           ; 4 bytes @ 0x13
   603  0033                     	ds	2
   604  0035                     ?___fltol:	
   605  0035                     ___fltol@f1:	
   606                           ; 4 bytes @ 0x15
   607                           
   608                           
   609                           ; 4 bytes @ 0x15
   610  0035                     	ds	2
   611  0037                     ___fldiv@sign:	
   612                           
   613                           ; 1 bytes @ 0x17
   614  0037                     	ds	1
   615  0038                     ___fldiv@new_exp:	
   616                           
   617                           ; 2 bytes @ 0x18
   618  0038                     	ds	1
   619  0039                     ??___fltol:	
   620                           
   621                           ; 1 bytes @ 0x19
   622  0039                     	ds	1
   623  003A                     ___fldiv@grs:	
   624                           
   625                           ; 4 bytes @ 0x1A
   626  003A                     	ds	4
   627  003E                     ___fltol@sign1:	
   628  003E                     ___fldiv@bexp:	
   629                           ; 1 bytes @ 0x1E
   630                           
   631                           
   632                           ; 1 bytes @ 0x1E
   633  003E                     	ds	1
   634  003F                     ___fltol@exp1:	
   635  003F                     ___fldiv@aexp:	
   636                           ; 1 bytes @ 0x1F
   637                           
   638                           
   639                           ; 1 bytes @ 0x1F
   640  003F                     	ds	1
   641  0040                     ?_disp_num:	
   642  0040                     disp_num@num:	
   643                           ; 1 bytes @ 0x20
   644                           
   645                           
   646                           ; 4 bytes @ 0x20
   647  0040                     	ds	4
   648  0044                     ??_disp_num:	
   649                           
   650                           ; 1 bytes @ 0x24
   651  0044                     	ds	3
   652  0047                     disp_num@j:	
   653                           
   654                           ; 2 bytes @ 0x27
   655  0047                     	ds	2
   656  0049                     disp_num@UnitDigit:	
   657                           
   658                           ; 1 bytes @ 0x29
   659  0049                     	ds	1
   660  004A                     disp_num@decimal:	
   661                           
   662                           ; 1 bytes @ 0x2A
   663  004A                     	ds	1
   664  004B                     disp_num@TenthDigit:	
   665                           
   666                           ; 1 bytes @ 0x2B
   667  004B                     	ds	1
   668  004C                     disp_num@numb:	
   669                           
   670                           ; 2 bytes @ 0x2C
   671  004C                     	ds	2
   672  004E                     ??_main:	
   673                           
   674                           ; 1 bytes @ 0x2E
   675  004E                     	ds	3
   676  0051                     main@ke:	
   677                           
   678                           ; 1 bytes @ 0x31
   679  0051                     	ds	1
   680  0052                     main@key:	
   681                           
   682                           ; 1 bytes @ 0x32
   683  0052                     	ds	1
   684  0053                     main@key1:	
   685                           
   686                           ; 1 bytes @ 0x33
   687  0053                     	ds	1
   688  0054                     main@k2:	
   689                           
   690                           ; 2 bytes @ 0x34
   691  0054                     	ds	2
   692  0056                     main@k1:	
   693                           
   694                           ; 2 bytes @ 0x36
   695  0056                     	ds	2
   696  0058                     main@count:	
   697                           
   698                           ; 2 bytes @ 0x38
   699  0058                     	ds	2
   700                           
   701                           	psect	maintext
   702  0295                     __pmaintext:	
   703 ;;
   704 ;;Main: autosize = 0, tempsize = 3, incstack = 0, save=0
   705 ;;
   706 ;; *************** function _main *****************
   707 ;; Defined at:
   708 ;;		line 39 in file "calc.c"
   709 ;; Parameters:    Size  Location     Type
   710 ;;		None
   711 ;; Auto vars:     Size  Location     Type
   712 ;;  count           2   56[BANK0 ] unsigned int 
   713 ;;  k1              2   54[BANK0 ] int 
   714 ;;  k2              2   52[BANK0 ] int 
   715 ;;  key1            1   51[BANK0 ] unsigned char 
   716 ;;  key             1   50[BANK0 ] unsigned char 
   717 ;;  ke              1   49[BANK0 ] unsigned char 
   718 ;; Return value:  Size  Location     Type
   719 ;;                  1    wreg      void 
   720 ;; Registers used:
   721 ;;		wreg, fsr0l, fsr0h, status,2, status,0, btemp+1, pclath, cstack
   722 ;; Tracked objects:
   723 ;;		On entry : B00/0
   724 ;;		On exit  : 0/0
   725 ;;		Unchanged: 0/0
   726 ;; Data sizes:     COMMON   BANK0   BANK1   BANK3   BANK2
   727 ;;      Params:         0       0       0       0       0
   728 ;;      Locals:         0       9       0       0       0
   729 ;;      Temps:          0       3       0       0       0
   730 ;;      Totals:         0      12       0       0       0
   731 ;;Total ram usage:       12 bytes
   732 ;; Hardware stack levels required when called:    3
   733 ;; This function calls:
   734 ;;		___fldiv
   735 ;;		___wmul
   736 ;;		___xxtofl
   737 ;;		_disp_num
   738 ;;		_get_num
   739 ;;		_lcdcmd
   740 ;;		_lcddata
   741 ;;		_lcdinit
   742 ;;		_scan_key
   743 ;; This function is called by:
   744 ;;		Startup code after reset
   745 ;; This function uses a non-reentrant model
   746 ;;
   747                           
   748                           
   749                           ;psect for function _main
   750  0295                     _main:	
   751  0295                     l2365:	
   752                           ;incstack = 0
   753                           ; Regs used in _main: [wreg-fsr0h+status,2+status,0+btemp+1+pclath+cstack]
   754                           
   755                           
   756                           ;calc.c: 41:    TRISC=0xF0;
   757  0295  30F0               	movlw	240
   758  0296  1683               	bsf	3,5	;RP0=1, select bank1
   759  0297  1303               	bcf	3,6	;RP1=0, select bank1
   760  0298  0087               	movwf	7	;volatile
   761  0299                     l2367:	
   762                           
   763                           ;calc.c: 42:    TRISB=0x00;
   764  0299  0186               	clrf	6	;volatile
   765  029A                     l2369:	
   766                           
   767                           ;calc.c: 43:       TRISD6=0;
   768  029A  1308               	bcf	8,6	;volatile
   769  029B                     l2371:	
   770                           
   771                           ;calc.c: 44:       TRISD7=0;
   772  029B  1388               	bcf	8,7	;volatile
   773  029C                     l2373:	
   774                           
   775                           ;calc.c: 45:    _delay((unsigned long)((400)*(20e6/4000.0)));
   776  029C  300B               	movlw	11
   777  029D  1283               	bcf	3,5	;RP0=0, select bank0
   778  029E  1303               	bcf	3,6	;RP1=0, select bank0
   779  029F  00D0               	movwf	??_main+2
   780  02A0  3026               	movlw	38
   781  02A1  00CF               	movwf	??_main+1
   782  02A2  305D               	movlw	93
   783  02A3  00CE               	movwf	??_main
   784  02A4                     u2797:	
   785  02A4  0BCE               	decfsz	??_main,f
   786  02A5  2AA4               	goto	u2797
   787  02A6  0BCF               	decfsz	??_main+1,f
   788  02A7  2AA4               	goto	u2797
   789  02A8  0BD0               	decfsz	??_main+2,f
   790  02A9  2AA4               	goto	u2797
   791                           
   792                           ;calc.c: 47:    unsigned int count=0;
   793  02AA  1283               	bcf	3,5	;RP0=0, select bank0
   794  02AB  1303               	bcf	3,6	;RP1=0, select bank0
   795  02AC  01D8               	clrf	main@count
   796  02AD  01D9               	clrf	main@count+1
   797  02AE                     l2375:	
   798                           
   799                           ;calc.c: 48:    int k2,k1;;calc.c: 49:    char ke,key,key1;;calc.c: 50:    lcdinit();
   800  02AE  120A  158A  23DC  120A  118A  	fcall	_lcdinit
   801  02B3                     l2377:	
   802                           
   803                           ;calc.c: 51:       PORTC=0xF0;
   804  02B3  30F0               	movlw	240
   805  02B4  1283               	bcf	3,5	;RP0=0, select bank0
   806  02B5  1303               	bcf	3,6	;RP1=0, select bank0
   807  02B6  0087               	movwf	7	;volatile
   808  02B7  2AC9               	goto	l2383
   809  02B8                     l2379:	
   810                           
   811                           ;calc.c: 54:       {;calc.c: 55:         lcddata(s[count]);
   812  02B8  0858               	movf	main@count,w
   813  02B9  3EBA               	addlw	(low (_s| 0))& (0+255)
   814  02BA  0084               	movwf	4
   815  02BB  0800               	movf	0,w
   816  02BC  120A  158A  22DC  120A  118A  	fcall	_lcddata
   817  02C1                     l2381:	
   818                           
   819                           ;calc.c: 56:         count++;
   820  02C1  3001               	movlw	1
   821  02C2  1283               	bcf	3,5	;RP0=0, select bank0
   822  02C3  1303               	bcf	3,6	;RP1=0, select bank0
   823  02C4  07D8               	addwf	main@count,f
   824  02C5  1803               	skipnc
   825  02C6  0AD9               	incf	main@count+1,f
   826  02C7  3000               	movlw	0
   827  02C8  07D9               	addwf	main@count+1,f
   828  02C9                     l2383:	
   829                           
   830                           ;calc.c: 53:       while(s[count]!='\0')
   831  02C9  1283               	bcf	3,5	;RP0=0, select bank0
   832  02CA  1303               	bcf	3,6	;RP1=0, select bank0
   833  02CB  0858               	movf	main@count,w
   834  02CC  3EBA               	addlw	(low (_s| 0))& (0+255)
   835  02CD  0084               	movwf	4
   836  02CE  1383               	bcf	3,7	;select IRP bank1
   837  02CF  0800               	movf	0,w
   838  02D0  1D03               	btfss	3,2
   839  02D1  2AD3               	goto	u2751
   840  02D2  2AD4               	goto	u2750
   841  02D3                     u2751:	
   842  02D3  2AB8               	goto	l2379
   843  02D4                     u2750:	
   844  02D4                     l2385:	
   845                           
   846                           ;calc.c: 59: ke=scan_key();
   847  02D4  120A  118A  20AA  120A  118A  	fcall	_scan_key
   848  02D9  1283               	bcf	3,5	;RP0=0, select bank0
   849  02DA  1303               	bcf	3,6	;RP1=0, select bank0
   850  02DB  00CE               	movwf	??_main
   851  02DC  084E               	movf	??_main,w
   852  02DD  00D1               	movwf	main@ke
   853  02DE                     l2387:	
   854                           
   855                           ;calc.c: 60: k2=get_num(ke);
   856  02DE  0851               	movf	main@ke,w
   857  02DF  120A  158A  2381  120A  118A  	fcall	_get_num
   858  02E4  0871               	movf	?_get_num+1,w
   859  02E5  1283               	bcf	3,5	;RP0=0, select bank0
   860  02E6  1303               	bcf	3,6	;RP1=0, select bank0
   861  02E7  00D5               	movwf	main@k2+1
   862  02E8  0870               	movf	?_get_num,w
   863  02E9  00D4               	movwf	main@k2
   864  02EA                     l2389:	
   865                           
   866                           ;calc.c: 62: lcdcmd(0x01);
   867  02EA  3001               	movlw	1
   868  02EB  120A  158A  22B7  120A  118A  	fcall	_lcdcmd
   869  02F0                     l2391:	
   870                           
   871                           ;calc.c: 63: count=0;
   872  02F0  1283               	bcf	3,5	;RP0=0, select bank0
   873  02F1  1303               	bcf	3,6	;RP1=0, select bank0
   874  02F2  01D8               	clrf	main@count
   875  02F3  01D9               	clrf	main@count+1
   876                           
   877                           ;calc.c: 65: while(s2[count]!='\0')
   878  02F4  2B06               	goto	l2397
   879  02F5                     l2393:	
   880                           
   881                           ;calc.c: 66: {;calc.c: 67: lcddata(s2[count]);
   882  02F5  0858               	movf	main@count,w
   883  02F6  3E5A               	addlw	(low (_s2| 0))& (0+255)
   884  02F7  0084               	movwf	4
   885  02F8  0800               	movf	0,w
   886  02F9  120A  158A  22DC  120A  118A  	fcall	_lcddata
   887  02FE                     l2395:	
   888                           
   889                           ;calc.c: 68: count++;
   890  02FE  3001               	movlw	1
   891  02FF  1283               	bcf	3,5	;RP0=0, select bank0
   892  0300  1303               	bcf	3,6	;RP1=0, select bank0
   893  0301  07D8               	addwf	main@count,f
   894  0302  1803               	skipnc
   895  0303  0AD9               	incf	main@count+1,f
   896  0304  3000               	movlw	0
   897  0305  07D9               	addwf	main@count+1,f
   898  0306                     l2397:	
   899                           
   900                           ;calc.c: 65: while(s2[count]!='\0')
   901  0306  0858               	movf	main@count,w
   902  0307  3E5A               	addlw	(low (_s2| 0))& (0+255)
   903  0308  0084               	movwf	4
   904  0309  1383               	bcf	3,7	;select IRP bank0
   905  030A  0800               	movf	0,w
   906  030B  1D03               	btfss	3,2
   907  030C  2B0E               	goto	u2761
   908  030D  2B0F               	goto	u2760
   909  030E                     u2761:	
   910  030E  2AF5               	goto	l2393
   911  030F                     u2760:	
   912  030F                     l2399:	
   913                           
   914                           ;calc.c: 71: key=scan_key();
   915  030F  120A  118A  20AA  120A  118A  	fcall	_scan_key
   916  0314  1283               	bcf	3,5	;RP0=0, select bank0
   917  0315  1303               	bcf	3,6	;RP1=0, select bank0
   918  0316  00CE               	movwf	??_main
   919  0317  084E               	movf	??_main,w
   920  0318  00D2               	movwf	main@key
   921                           
   922                           ;calc.c: 73: lcdcmd(0x01);
   923  0319  3001               	movlw	1
   924  031A  120A  158A  22B7  120A  118A  	fcall	_lcdcmd
   925  031F                     l2401:	
   926                           
   927                           ;calc.c: 74: count=0;
   928  031F  1283               	bcf	3,5	;RP0=0, select bank0
   929  0320  1303               	bcf	3,6	;RP1=0, select bank0
   930  0321  01D8               	clrf	main@count
   931  0322  01D9               	clrf	main@count+1
   932                           
   933                           ;calc.c: 76: while(s1[count]!='\0')
   934  0323  2B35               	goto	l2407
   935  0324                     l2403:	
   936                           
   937                           ;calc.c: 77: {;calc.c: 78: lcddata(s1[count]);
   938  0324  0858               	movf	main@count,w
   939  0325  3EAD               	addlw	(low (_s1| 0))& (0+255)
   940  0326  0084               	movwf	4
   941  0327  0800               	movf	0,w
   942  0328  120A  158A  22DC  120A  118A  	fcall	_lcddata
   943  032D                     l2405:	
   944                           
   945                           ;calc.c: 79: count++;
   946  032D  3001               	movlw	1
   947  032E  1283               	bcf	3,5	;RP0=0, select bank0
   948  032F  1303               	bcf	3,6	;RP1=0, select bank0
   949  0330  07D8               	addwf	main@count,f
   950  0331  1803               	skipnc
   951  0332  0AD9               	incf	main@count+1,f
   952  0333  3000               	movlw	0
   953  0334  07D9               	addwf	main@count+1,f
   954  0335                     l2407:	
   955                           
   956                           ;calc.c: 76: while(s1[count]!='\0')
   957  0335  0858               	movf	main@count,w
   958  0336  3EAD               	addlw	(low (_s1| 0))& (0+255)
   959  0337  0084               	movwf	4
   960  0338  1383               	bcf	3,7	;select IRP bank1
   961  0339  0800               	movf	0,w
   962  033A  1D03               	btfss	3,2
   963  033B  2B3D               	goto	u2771
   964  033C  2B3E               	goto	u2770
   965  033D                     u2771:	
   966  033D  2B24               	goto	l2403
   967  033E                     u2770:	
   968  033E                     l2409:	
   969                           
   970                           ;calc.c: 82: key1=scan_key();
   971  033E  120A  118A  20AA  120A  118A  	fcall	_scan_key
   972  0343  1283               	bcf	3,5	;RP0=0, select bank0
   973  0344  1303               	bcf	3,6	;RP1=0, select bank0
   974  0345  00CE               	movwf	??_main
   975  0346  084E               	movf	??_main,w
   976  0347  00D3               	movwf	main@key1
   977  0348                     l2411:	
   978                           
   979                           ;calc.c: 83: k1=get_num(key1);
   980  0348  0853               	movf	main@key1,w
   981  0349  120A  158A  2381  120A  118A  	fcall	_get_num
   982  034E  0871               	movf	?_get_num+1,w
   983  034F  1283               	bcf	3,5	;RP0=0, select bank0
   984  0350  1303               	bcf	3,6	;RP1=0, select bank0
   985  0351  00D7               	movwf	main@k1+1
   986  0352  0870               	movf	?_get_num,w
   987  0353  00D6               	movwf	main@k1
   988  0354                     l2413:	
   989                           
   990                           ;calc.c: 85: lcdcmd(0x01);
   991  0354  3001               	movlw	1
   992  0355  120A  158A  22B7  120A  118A  	fcall	_lcdcmd
   993  035A                     l2415:	
   994                           
   995                           ;calc.c: 86: lcdcmd(0x82);
   996  035A  3082               	movlw	130
   997  035B  120A  158A  22B7  120A  118A  	fcall	_lcdcmd
   998  0360                     l2417:	
   999                           
  1000                           ;calc.c: 87: count=0;
  1001  0360  1283               	bcf	3,5	;RP0=0, select bank0
  1002  0361  1303               	bcf	3,6	;RP1=0, select bank0
  1003  0362  01D8               	clrf	main@count
  1004  0363  01D9               	clrf	main@count+1
  1005                           
  1006                           ;calc.c: 89: while(s3[count]!='\0')
  1007  0364  2B76               	goto	l2423
  1008  0365                     l2419:	
  1009                           
  1010                           ;calc.c: 90: {;calc.c: 91: lcddata(s3[count]);
  1011  0365  0858               	movf	main@count,w
  1012  0366  3EA0               	addlw	(low (_s3| 0))& (0+255)
  1013  0367  0084               	movwf	4
  1014  0368  0800               	movf	0,w
  1015  0369  120A  158A  22DC  120A  118A  	fcall	_lcddata
  1016  036E                     l2421:	
  1017                           
  1018                           ;calc.c: 92: count++;
  1019  036E  3001               	movlw	1
  1020  036F  1283               	bcf	3,5	;RP0=0, select bank0
  1021  0370  1303               	bcf	3,6	;RP1=0, select bank0
  1022  0371  07D8               	addwf	main@count,f
  1023  0372  1803               	skipnc
  1024  0373  0AD9               	incf	main@count+1,f
  1025  0374  3000               	movlw	0
  1026  0375  07D9               	addwf	main@count+1,f
  1027  0376                     l2423:	
  1028                           
  1029                           ;calc.c: 89: while(s3[count]!='\0')
  1030  0376  0858               	movf	main@count,w
  1031  0377  3EA0               	addlw	(low (_s3| 0))& (0+255)
  1032  0378  0084               	movwf	4
  1033  0379  1383               	bcf	3,7	;select IRP bank1
  1034  037A  0800               	movf	0,w
  1035  037B  1D03               	btfss	3,2
  1036  037C  2B7E               	goto	u2781
  1037  037D  2B7F               	goto	u2780
  1038  037E                     u2781:	
  1039  037E  2B65               	goto	l2419
  1040  037F                     u2780:	
  1041  037F                     l2425:	
  1042                           
  1043                           ;calc.c: 94: count=0;
  1044  037F  01D8               	clrf	main@count
  1045  0380  01D9               	clrf	main@count+1
  1046  0381                     l2427:	
  1047                           
  1048                           ;calc.c: 95: lcdcmd(0xC0);
  1049  0381  30C0               	movlw	192
  1050  0382  120A  158A  22B7  120A  118A  	fcall	_lcdcmd
  1051  0387                     l2429:	
  1052                           
  1053                           ;calc.c: 96: lcddata(ke);
  1054  0387  1283               	bcf	3,5	;RP0=0, select bank0
  1055  0388  1303               	bcf	3,6	;RP1=0, select bank0
  1056  0389  0851               	movf	main@ke,w
  1057  038A  120A  158A  22DC  120A  118A  	fcall	_lcddata
  1058  038F                     l2431:	
  1059                           
  1060                           ;calc.c: 97: lcddata(key);
  1061  038F  1283               	bcf	3,5	;RP0=0, select bank0
  1062  0390  1303               	bcf	3,6	;RP1=0, select bank0
  1063  0391  0852               	movf	main@key,w
  1064  0392  120A  158A  22DC  120A  118A  	fcall	_lcddata
  1065  0397                     l2433:	
  1066                           
  1067                           ;calc.c: 98: lcddata(key1);
  1068  0397  1283               	bcf	3,5	;RP0=0, select bank0
  1069  0398  1303               	bcf	3,6	;RP1=0, select bank0
  1070  0399  0853               	movf	main@key1,w
  1071  039A  120A  158A  22DC  120A  118A  	fcall	_lcddata
  1072  039F                     l2435:	
  1073                           
  1074                           ;calc.c: 99: lcddata(' ');
  1075  039F  3020               	movlw	32
  1076  03A0  120A  158A  22DC  120A  118A  	fcall	_lcddata
  1077  03A5                     l2437:	
  1078                           
  1079                           ;calc.c: 100: lcddata('=');
  1080  03A5  303D               	movlw	61
  1081  03A6  120A  158A  22DC  120A  118A  	fcall	_lcddata
  1082                           
  1083                           ;calc.c: 102: switch(key)
  1084  03AB  2C65               	goto	l2449
  1085  03AC                     l2439:	
  1086                           
  1087                           ;calc.c: 105: disp_num(k1+k2);
  1088  03AC  0854               	movf	main@k2,w
  1089  03AD  0756               	addwf	main@k1,w
  1090  03AE  00F6               	movwf	___xxtofl@val
  1091  03AF  0855               	movf	main@k2+1,w
  1092  03B0  1803               	skipnc
  1093  03B1  0A55               	incf	main@k2+1,w
  1094  03B2  0757               	addwf	main@k1+1,w
  1095  03B3  00F7               	movwf	___xxtofl@val+1
  1096  03B4  01F8               	clrf	___xxtofl@val+2
  1097  03B5  1BF7               	btfsc	___xxtofl@val+1,7
  1098  03B6  03F8               	decf	___xxtofl@val+2,f
  1099  03B7  0878               	movf	___xxtofl@val+2,w
  1100  03B8  00F9               	movwf	___xxtofl@val+3
  1101  03B9  3001               	movlw	1
  1102  03BA  120A  158A  24A8  120A  118A  	fcall	___xxtofl
  1103  03BF  0879               	movf	?___xxtofl+3,w
  1104  03C0  1283               	bcf	3,5	;RP0=0, select bank0
  1105  03C1  1303               	bcf	3,6	;RP1=0, select bank0
  1106  03C2  00C3               	movwf	disp_num@num+3
  1107  03C3  0878               	movf	?___xxtofl+2,w
  1108  03C4  00C2               	movwf	disp_num@num+2
  1109  03C5  0877               	movf	?___xxtofl+1,w
  1110  03C6  00C1               	movwf	disp_num@num+1
  1111  03C7  0876               	movf	?___xxtofl,w
  1112  03C8  00C0               	movwf	disp_num@num
  1113  03C9  120A  158A  2564  120A  118A  	fcall	_disp_num
  1114                           
  1115                           ;calc.c: 106: break;
  1116  03CE  2AC9               	goto	l2383
  1117  03CF                     l2441:	
  1118                           
  1119                           ;calc.c: 108: disp_num(k2-k1);
  1120  03CF  0856               	movf	main@k1,w
  1121  03D0  0254               	subwf	main@k2,w
  1122  03D1  00F6               	movwf	___xxtofl@val
  1123  03D2  0857               	movf	main@k1+1,w
  1124  03D3  1C03               	skipc
  1125  03D4  0A57               	incf	main@k1+1,w
  1126  03D5  0255               	subwf	main@k2+1,w
  1127  03D6  00F7               	movwf	___xxtofl@val+1
  1128  03D7  01F8               	clrf	___xxtofl@val+2
  1129  03D8  1BF7               	btfsc	___xxtofl@val+1,7
  1130  03D9  03F8               	decf	___xxtofl@val+2,f
  1131  03DA  0878               	movf	___xxtofl@val+2,w
  1132  03DB  00F9               	movwf	___xxtofl@val+3
  1133  03DC  3001               	movlw	1
  1134  03DD  120A  158A  24A8  120A  118A  	fcall	___xxtofl
  1135  03E2  0879               	movf	?___xxtofl+3,w
  1136  03E3  1283               	bcf	3,5	;RP0=0, select bank0
  1137  03E4  1303               	bcf	3,6	;RP1=0, select bank0
  1138  03E5  00C3               	movwf	disp_num@num+3
  1139  03E6  0878               	movf	?___xxtofl+2,w
  1140  03E7  00C2               	movwf	disp_num@num+2
  1141  03E8  0877               	movf	?___xxtofl+1,w
  1142  03E9  00C1               	movwf	disp_num@num+1
  1143  03EA  0876               	movf	?___xxtofl,w
  1144  03EB  00C0               	movwf	disp_num@num
  1145  03EC  120A  158A  2564  120A  118A  	fcall	_disp_num
  1146                           
  1147                           ;calc.c: 109: break;
  1148  03F1  2AC9               	goto	l2383
  1149  03F2                     l2443:	
  1150                           
  1151                           ;calc.c: 111: disp_num(k2*k1);
  1152  03F2  0857               	movf	main@k1+1,w
  1153  03F3  00F3               	movwf	___wmul@multiplicand+1
  1154  03F4  0856               	movf	main@k1,w
  1155  03F5  00F2               	movwf	___wmul@multiplicand
  1156  03F6  0855               	movf	main@k2+1,w
  1157  03F7  00F1               	movwf	___wmul@multiplier+1
  1158  03F8  0854               	movf	main@k2,w
  1159  03F9  00F0               	movwf	___wmul@multiplier
  1160  03FA  120A  158A  2292  120A  118A  	fcall	___wmul
  1161  03FF  0870               	movf	?___wmul,w
  1162  0400  00F6               	movwf	___xxtofl@val
  1163  0401  0871               	movf	?___wmul+1,w
  1164  0402  00F7               	movwf	___xxtofl@val+1
  1165  0403  3000               	movlw	0
  1166  0404  1BF7               	btfsc	___xxtofl@val+1,7
  1167  0405  30FF               	movlw	255
  1168  0406  00F8               	movwf	___xxtofl@val+2
  1169  0407  00F9               	movwf	___xxtofl@val+3
  1170  0408  3001               	movlw	1
  1171  0409  120A  158A  24A8  120A  118A  	fcall	___xxtofl
  1172  040E  0879               	movf	?___xxtofl+3,w
  1173  040F  1283               	bcf	3,5	;RP0=0, select bank0
  1174  0410  1303               	bcf	3,6	;RP1=0, select bank0
  1175  0411  00C3               	movwf	disp_num@num+3
  1176  0412  0878               	movf	?___xxtofl+2,w
  1177  0413  00C2               	movwf	disp_num@num+2
  1178  0414  0877               	movf	?___xxtofl+1,w
  1179  0415  00C1               	movwf	disp_num@num+1
  1180  0416  0876               	movf	?___xxtofl,w
  1181  0417  00C0               	movwf	disp_num@num
  1182  0418  120A  158A  2564  120A  118A  	fcall	_disp_num
  1183                           
  1184                           ;calc.c: 112: break;
  1185  041D  2AC9               	goto	l2383
  1186  041E                     l2445:	
  1187                           
  1188                           ;calc.c: 114: disp_num((float)k2/k1);
  1189  041E  0856               	movf	main@k1,w
  1190  041F  00F6               	movwf	___xxtofl@val
  1191  0420  0857               	movf	main@k1+1,w
  1192  0421  00F7               	movwf	___xxtofl@val+1
  1193  0422  3000               	movlw	0
  1194  0423  1BF7               	btfsc	___xxtofl@val+1,7
  1195  0424  30FF               	movlw	255
  1196  0425  00F8               	movwf	___xxtofl@val+2
  1197  0426  00F9               	movwf	___xxtofl@val+3
  1198  0427  3001               	movlw	1
  1199  0428  120A  158A  24A8  120A  118A  	fcall	___xxtofl
  1200  042D  0879               	movf	?___xxtofl+3,w
  1201  042E  1283               	bcf	3,5	;RP0=0, select bank0
  1202  042F  1303               	bcf	3,6	;RP1=0, select bank0
  1203  0430  00A9               	movwf	___fldiv@a+3
  1204  0431  0878               	movf	?___xxtofl+2,w
  1205  0432  00A8               	movwf	___fldiv@a+2
  1206  0433  0877               	movf	?___xxtofl+1,w
  1207  0434  00A7               	movwf	___fldiv@a+1
  1208  0435  0876               	movf	?___xxtofl,w
  1209  0436  00A6               	movwf	___fldiv@a
  1210  0437  0854               	movf	main@k2,w
  1211  0438  00F6               	movwf	___xxtofl@val
  1212  0439  0855               	movf	main@k2+1,w
  1213  043A  00F7               	movwf	___xxtofl@val+1
  1214  043B  3000               	movlw	0
  1215  043C  1BF7               	btfsc	___xxtofl@val+1,7
  1216  043D  30FF               	movlw	255
  1217  043E  00F8               	movwf	___xxtofl@val+2
  1218  043F  00F9               	movwf	___xxtofl@val+3
  1219  0440  3001               	movlw	1
  1220  0441  120A  158A  24A8  120A  118A  	fcall	___xxtofl
  1221  0446  0879               	movf	?___xxtofl+3,w
  1222  0447  1283               	bcf	3,5	;RP0=0, select bank0
  1223  0448  1303               	bcf	3,6	;RP1=0, select bank0
  1224  0449  00AD               	movwf	___fldiv@b+3
  1225  044A  0878               	movf	?___xxtofl+2,w
  1226  044B  00AC               	movwf	___fldiv@b+2
  1227  044C  0877               	movf	?___xxtofl+1,w
  1228  044D  00AB               	movwf	___fldiv@b+1
  1229  044E  0876               	movf	?___xxtofl,w
  1230  044F  00AA               	movwf	___fldiv@b
  1231  0450  120A  158A  2623  120A  118A  	fcall	___fldiv
  1232  0455  1283               	bcf	3,5	;RP0=0, select bank0
  1233  0456  1303               	bcf	3,6	;RP1=0, select bank0
  1234  0457  0829               	movf	?___fldiv+3,w
  1235  0458  00C3               	movwf	disp_num@num+3
  1236  0459  0828               	movf	?___fldiv+2,w
  1237  045A  00C2               	movwf	disp_num@num+2
  1238  045B  0827               	movf	?___fldiv+1,w
  1239  045C  00C1               	movwf	disp_num@num+1
  1240  045D  0826               	movf	?___fldiv,w
  1241  045E  00C0               	movwf	disp_num@num
  1242  045F  120A  158A  2564  120A  118A  	fcall	_disp_num
  1243                           
  1244                           ;calc.c: 115: break;
  1245  0464  2AC9               	goto	l2383
  1246  0465                     l2449:	
  1247  0465  1283               	bcf	3,5	;RP0=0, select bank0
  1248  0466  1303               	bcf	3,6	;RP1=0, select bank0
  1249  0467  0852               	movf	main@key,w
  1250  0468  00CE               	movwf	??_main
  1251  0469  01CF               	clrf	??_main+1
  1252                           
  1253                           ; Switch on 2 bytes has been partitioned into a top level switch of size 1, and 1 sub-sw
      +                          itches
  1254                           ; Switch size 1, requested type "simple"
  1255                           ; Number of cases is 1, Range of values is 0 to 0
  1256                           ; switch strategies available:
  1257                           ; Name         Instructions Cycles
  1258                           ; simple_byte            4     3 (average)
  1259                           ; direct_byte           11     8 (fixed)
  1260                           ; jumptable            260     6 (fixed)
  1261                           ;	Chosen strategy is simple_byte
  1262  046A  084F               	movf	??_main+1,w
  1263  046B  3A00               	xorlw	0	; case 0
  1264  046C  1903               	skipnz
  1265  046D  2C6F               	goto	l2507
  1266  046E  2AC9               	goto	l2383
  1267  046F                     l2507:	
  1268                           
  1269                           ; Switch size 1, requested type "simple"
  1270                           ; Number of cases is 4, Range of values is 42 to 47
  1271                           ; switch strategies available:
  1272                           ; Name         Instructions Cycles
  1273                           ; simple_byte           13     7 (average)
  1274                           ; direct_byte           29    11 (fixed)
  1275                           ; jumptable            263     9 (fixed)
  1276                           ;	Chosen strategy is simple_byte
  1277  046F  084E               	movf	??_main,w
  1278  0470  3A2A               	xorlw	42	; case 42
  1279  0471  1903               	skipnz
  1280  0472  2BF2               	goto	l2443
  1281  0473  3A01               	xorlw	1	; case 43
  1282  0474  1903               	skipnz
  1283  0475  2BAC               	goto	l2439
  1284  0476  3A06               	xorlw	6	; case 45
  1285  0477  1903               	skipnz
  1286  0478  2BCF               	goto	l2441
  1287  0479  3A02               	xorlw	2	; case 47
  1288  047A  1903               	skipnz
  1289  047B  2C1E               	goto	l2445
  1290  047C  2AC9               	goto	l2383
  1291  047D  120A  118A  2800   	ljmp	start
  1292  0480                     __end_of_main:	
  1293                           
  1294                           	psect	text1
  1295  00AA                     __ptext1:	
  1296 ;; *************** function _scan_key *****************
  1297 ;; Defined at:
  1298 ;;		line 142 in file "calc.c"
  1299 ;; Parameters:    Size  Location     Type
  1300 ;;		None
  1301 ;; Auto vars:     Size  Location     Type
  1302 ;;  c               1    8[COMMON] unsigned char 
  1303 ;;  d               1    7[COMMON] unsigned char 
  1304 ;; Return value:  Size  Location     Type
  1305 ;;                  1    wreg      unsigned char 
  1306 ;; Registers used:
  1307 ;;		wreg, status,2, status,0, pclath, cstack
  1308 ;; Tracked objects:
  1309 ;;		On entry : 0/0
  1310 ;;		On exit  : 0/0
  1311 ;;		Unchanged: 0/0
  1312 ;; Data sizes:     COMMON   BANK0   BANK1   BANK3   BANK2
  1313 ;;      Params:         0       0       0       0       0
  1314 ;;      Locals:         2       0       0       0       0
  1315 ;;      Temps:          3       0       0       0       0
  1316 ;;      Totals:         5       0       0       0       0
  1317 ;;Total ram usage:        5 bytes
  1318 ;; Hardware stack levels used:    1
  1319 ;; Hardware stack levels required when called:    1
  1320 ;; This function calls:
  1321 ;;		_lcddata
  1322 ;; This function is called by:
  1323 ;;		_main
  1324 ;; This function uses a non-reentrant model
  1325 ;;
  1326                           
  1327                           
  1328                           ;psect for function _scan_key
  1329  00AA                     _scan_key:	
  1330  00AA                     l1935:	
  1331                           ;incstack = 0
  1332                           ; Regs used in _scan_key: [wreg+status,2+status,0+pclath+cstack]
  1333                           
  1334                           
  1335                           ;calc.c: 144: unsigned char c='s',d;
  1336  00AA  3073               	movlw	115
  1337  00AB  00F4               	movwf	??_scan_key
  1338  00AC  0874               	movf	??_scan_key,w
  1339  00AD  00F8               	movwf	scan_key@c
  1340                           
  1341                           ;calc.c: 145: while(c!='a')
  1342  00AE  2A8D               	goto	l2099
  1343  00AF                     l91:	
  1344                           
  1345                           ;calc.c: 146: {;calc.c: 147: RC0=1;RC1=0;RC2=0;RC3=0;
  1346  00AF  1283               	bcf	3,5	;RP0=0, select bank0
  1347  00B0  1303               	bcf	3,6	;RP1=0, select bank0
  1348  00B1  1407               	bsf	7,0	;volatile
  1349  00B2  1087               	bcf	7,1	;volatile
  1350  00B3  1107               	bcf	7,2	;volatile
  1351  00B4  1187               	bcf	7,3	;volatile
  1352                           
  1353                           ;calc.c: 148: if(RC4==1 ){ lcddata('7');_delay((unsigned long)((500)*(20e6/4000.0)));d= 
      +                          '7';c='a';}
  1354  00B5  1E07               	btfss	7,4	;volatile
  1355  00B6  28B8               	goto	u2111
  1356  00B7  28B9               	goto	u2110
  1357  00B8                     u2111:	
  1358  00B8  28D4               	goto	l1945
  1359  00B9                     u2110:	
  1360  00B9                     l1937:	
  1361  00B9  3037               	movlw	55
  1362  00BA  120A  158A  22DC  120A  118A  	fcall	_lcddata
  1363  00BF                     l1939:	
  1364  00BF  300D               	movlw	13
  1365  00C0  00F6               	movwf	??_scan_key+2
  1366  00C1  30AF               	movlw	175
  1367  00C2  00F5               	movwf	??_scan_key+1
  1368  00C3  30B6               	movlw	182
  1369  00C4  00F4               	movwf	??_scan_key
  1370  00C5                     u2807:	
  1371  00C5  0BF4               	decfsz	??_scan_key,f
  1372  00C6  28C5               	goto	u2807
  1373  00C7  0BF5               	decfsz	??_scan_key+1,f
  1374  00C8  28C5               	goto	u2807
  1375  00C9  0BF6               	decfsz	??_scan_key+2,f
  1376  00CA  28C5               	goto	u2807
  1377  00CB  0000               	nop
  1378  00CC                     l1941:	
  1379  00CC  3037               	movlw	55
  1380  00CD  00F4               	movwf	??_scan_key
  1381  00CE  0874               	movf	??_scan_key,w
  1382  00CF  00F7               	movwf	scan_key@d
  1383  00D0                     l1943:	
  1384  00D0  3061               	movlw	97
  1385  00D1  00F4               	movwf	??_scan_key
  1386  00D2  0874               	movf	??_scan_key,w
  1387  00D3  00F8               	movwf	scan_key@c
  1388  00D4                     l1945:	
  1389                           
  1390                           ;calc.c: 149: if(RC5==1 ){ lcddata('8');_delay((unsigned long)((500)*(20e6/4000.0)));d= 
      +                          '8';c='a';}
  1391  00D4  1283               	bcf	3,5	;RP0=0, select bank0
  1392  00D5  1303               	bcf	3,6	;RP1=0, select bank0
  1393  00D6  1E87               	btfss	7,5	;volatile
  1394  00D7  28D9               	goto	u2121
  1395  00D8  28DA               	goto	u2120
  1396  00D9                     u2121:	
  1397  00D9  28F5               	goto	l1955
  1398  00DA                     u2120:	
  1399  00DA                     l1947:	
  1400  00DA  3038               	movlw	56
  1401  00DB  120A  158A  22DC  120A  118A  	fcall	_lcddata
  1402  00E0                     l1949:	
  1403  00E0  300D               	movlw	13
  1404  00E1  00F6               	movwf	??_scan_key+2
  1405  00E2  30AF               	movlw	175
  1406  00E3  00F5               	movwf	??_scan_key+1
  1407  00E4  30B6               	movlw	182
  1408  00E5  00F4               	movwf	??_scan_key
  1409  00E6                     u2817:	
  1410  00E6  0BF4               	decfsz	??_scan_key,f
  1411  00E7  28E6               	goto	u2817
  1412  00E8  0BF5               	decfsz	??_scan_key+1,f
  1413  00E9  28E6               	goto	u2817
  1414  00EA  0BF6               	decfsz	??_scan_key+2,f
  1415  00EB  28E6               	goto	u2817
  1416  00EC  0000               	nop
  1417  00ED                     l1951:	
  1418  00ED  3038               	movlw	56
  1419  00EE  00F4               	movwf	??_scan_key
  1420  00EF  0874               	movf	??_scan_key,w
  1421  00F0  00F7               	movwf	scan_key@d
  1422  00F1                     l1953:	
  1423  00F1  3061               	movlw	97
  1424  00F2  00F4               	movwf	??_scan_key
  1425  00F3  0874               	movf	??_scan_key,w
  1426  00F4  00F8               	movwf	scan_key@c
  1427  00F5                     l1955:	
  1428                           
  1429                           ;calc.c: 150: if(RC6==1 ){ lcddata('9');_delay((unsigned long)((500)*(20e6/4000.0)));d= 
      +                          '9';c='a';}
  1430  00F5  1283               	bcf	3,5	;RP0=0, select bank0
  1431  00F6  1303               	bcf	3,6	;RP1=0, select bank0
  1432  00F7  1F07               	btfss	7,6	;volatile
  1433  00F8  28FA               	goto	u2131
  1434  00F9  28FB               	goto	u2130
  1435  00FA                     u2131:	
  1436  00FA  2916               	goto	l1965
  1437  00FB                     u2130:	
  1438  00FB                     l1957:	
  1439  00FB  3039               	movlw	57
  1440  00FC  120A  158A  22DC  120A  118A  	fcall	_lcddata
  1441  0101                     l1959:	
  1442  0101  300D               	movlw	13
  1443  0102  00F6               	movwf	??_scan_key+2
  1444  0103  30AF               	movlw	175
  1445  0104  00F5               	movwf	??_scan_key+1
  1446  0105  30B6               	movlw	182
  1447  0106  00F4               	movwf	??_scan_key
  1448  0107                     u2827:	
  1449  0107  0BF4               	decfsz	??_scan_key,f
  1450  0108  2907               	goto	u2827
  1451  0109  0BF5               	decfsz	??_scan_key+1,f
  1452  010A  2907               	goto	u2827
  1453  010B  0BF6               	decfsz	??_scan_key+2,f
  1454  010C  2907               	goto	u2827
  1455  010D  0000               	nop
  1456  010E                     l1961:	
  1457  010E  3039               	movlw	57
  1458  010F  00F4               	movwf	??_scan_key
  1459  0110  0874               	movf	??_scan_key,w
  1460  0111  00F7               	movwf	scan_key@d
  1461  0112                     l1963:	
  1462  0112  3061               	movlw	97
  1463  0113  00F4               	movwf	??_scan_key
  1464  0114  0874               	movf	??_scan_key,w
  1465  0115  00F8               	movwf	scan_key@c
  1466  0116                     l1965:	
  1467                           
  1468                           ;calc.c: 151: if(RC7==1 ){ lcddata('/');_delay((unsigned long)((500)*(20e6/4000.0)));d= 
      +                          '/';c='a';}
  1469  0116  1283               	bcf	3,5	;RP0=0, select bank0
  1470  0117  1303               	bcf	3,6	;RP1=0, select bank0
  1471  0118  1F87               	btfss	7,7	;volatile
  1472  0119  291B               	goto	u2141
  1473  011A  291C               	goto	u2140
  1474  011B                     u2141:	
  1475  011B  2937               	goto	l1975
  1476  011C                     u2140:	
  1477  011C                     l1967:	
  1478  011C  302F               	movlw	47
  1479  011D  120A  158A  22DC  120A  118A  	fcall	_lcddata
  1480  0122                     l1969:	
  1481  0122  300D               	movlw	13
  1482  0123  00F6               	movwf	??_scan_key+2
  1483  0124  30AF               	movlw	175
  1484  0125  00F5               	movwf	??_scan_key+1
  1485  0126  30B6               	movlw	182
  1486  0127  00F4               	movwf	??_scan_key
  1487  0128                     u2837:	
  1488  0128  0BF4               	decfsz	??_scan_key,f
  1489  0129  2928               	goto	u2837
  1490  012A  0BF5               	decfsz	??_scan_key+1,f
  1491  012B  2928               	goto	u2837
  1492  012C  0BF6               	decfsz	??_scan_key+2,f
  1493  012D  2928               	goto	u2837
  1494  012E  0000               	nop
  1495  012F                     l1971:	
  1496  012F  302F               	movlw	47
  1497  0130  00F4               	movwf	??_scan_key
  1498  0131  0874               	movf	??_scan_key,w
  1499  0132  00F7               	movwf	scan_key@d
  1500  0133                     l1973:	
  1501  0133  3061               	movlw	97
  1502  0134  00F4               	movwf	??_scan_key
  1503  0135  0874               	movf	??_scan_key,w
  1504  0136  00F8               	movwf	scan_key@c
  1505  0137                     l1975:	
  1506                           
  1507                           ;calc.c: 153: RC0=0;RC1=1;RC2=0;RC3=0;
  1508  0137  1283               	bcf	3,5	;RP0=0, select bank0
  1509  0138  1303               	bcf	3,6	;RP1=0, select bank0
  1510  0139  1007               	bcf	7,0	;volatile
  1511  013A                     l1977:	
  1512  013A  1487               	bsf	7,1	;volatile
  1513  013B                     l1979:	
  1514  013B  1107               	bcf	7,2	;volatile
  1515  013C                     l1981:	
  1516  013C  1187               	bcf	7,3	;volatile
  1517  013D                     l1983:	
  1518                           
  1519                           ;calc.c: 155: if(RC4==1 ){ lcddata('4');_delay((unsigned long)((500)*(20e6/4000.0)));d= 
      +                          '4';c='a';}
  1520  013D  1E07               	btfss	7,4	;volatile
  1521  013E  2940               	goto	u2151
  1522  013F  2941               	goto	u2150
  1523  0140                     u2151:	
  1524  0140  295C               	goto	l1993
  1525  0141                     u2150:	
  1526  0141                     l1985:	
  1527  0141  3034               	movlw	52
  1528  0142  120A  158A  22DC  120A  118A  	fcall	_lcddata
  1529  0147                     l1987:	
  1530  0147  300D               	movlw	13
  1531  0148  00F6               	movwf	??_scan_key+2
  1532  0149  30AF               	movlw	175
  1533  014A  00F5               	movwf	??_scan_key+1
  1534  014B  30B6               	movlw	182
  1535  014C  00F4               	movwf	??_scan_key
  1536  014D                     u2847:	
  1537  014D  0BF4               	decfsz	??_scan_key,f
  1538  014E  294D               	goto	u2847
  1539  014F  0BF5               	decfsz	??_scan_key+1,f
  1540  0150  294D               	goto	u2847
  1541  0151  0BF6               	decfsz	??_scan_key+2,f
  1542  0152  294D               	goto	u2847
  1543  0153  0000               	nop
  1544  0154                     l1989:	
  1545  0154  3034               	movlw	52
  1546  0155  00F4               	movwf	??_scan_key
  1547  0156  0874               	movf	??_scan_key,w
  1548  0157  00F7               	movwf	scan_key@d
  1549  0158                     l1991:	
  1550  0158  3061               	movlw	97
  1551  0159  00F4               	movwf	??_scan_key
  1552  015A  0874               	movf	??_scan_key,w
  1553  015B  00F8               	movwf	scan_key@c
  1554  015C                     l1993:	
  1555                           
  1556                           ;calc.c: 156: if(RC5==1 ){ lcddata('5');_delay((unsigned long)((500)*(20e6/4000.0)));d= 
      +                          '5';c='a';}
  1557  015C  1283               	bcf	3,5	;RP0=0, select bank0
  1558  015D  1303               	bcf	3,6	;RP1=0, select bank0
  1559  015E  1E87               	btfss	7,5	;volatile
  1560  015F  2961               	goto	u2161
  1561  0160  2962               	goto	u2160
  1562  0161                     u2161:	
  1563  0161  297D               	goto	l2003
  1564  0162                     u2160:	
  1565  0162                     l1995:	
  1566  0162  3035               	movlw	53
  1567  0163  120A  158A  22DC  120A  118A  	fcall	_lcddata
  1568  0168                     l1997:	
  1569  0168  300D               	movlw	13
  1570  0169  00F6               	movwf	??_scan_key+2
  1571  016A  30AF               	movlw	175
  1572  016B  00F5               	movwf	??_scan_key+1
  1573  016C  30B6               	movlw	182
  1574  016D  00F4               	movwf	??_scan_key
  1575  016E                     u2857:	
  1576  016E  0BF4               	decfsz	??_scan_key,f
  1577  016F  296E               	goto	u2857
  1578  0170  0BF5               	decfsz	??_scan_key+1,f
  1579  0171  296E               	goto	u2857
  1580  0172  0BF6               	decfsz	??_scan_key+2,f
  1581  0173  296E               	goto	u2857
  1582  0174  0000               	nop
  1583  0175                     l1999:	
  1584  0175  3035               	movlw	53
  1585  0176  00F4               	movwf	??_scan_key
  1586  0177  0874               	movf	??_scan_key,w
  1587  0178  00F7               	movwf	scan_key@d
  1588  0179                     l2001:	
  1589  0179  3061               	movlw	97
  1590  017A  00F4               	movwf	??_scan_key
  1591  017B  0874               	movf	??_scan_key,w
  1592  017C  00F8               	movwf	scan_key@c
  1593  017D                     l2003:	
  1594                           
  1595                           ;calc.c: 157: if(RC6==1 ){ lcddata('6');_delay((unsigned long)((500)*(20e6/4000.0)));d= 
      +                          '6';c='a';}
  1596  017D  1283               	bcf	3,5	;RP0=0, select bank0
  1597  017E  1303               	bcf	3,6	;RP1=0, select bank0
  1598  017F  1F07               	btfss	7,6	;volatile
  1599  0180  2982               	goto	u2171
  1600  0181  2983               	goto	u2170
  1601  0182                     u2171:	
  1602  0182  299E               	goto	l2013
  1603  0183                     u2170:	
  1604  0183                     l2005:	
  1605  0183  3036               	movlw	54
  1606  0184  120A  158A  22DC  120A  118A  	fcall	_lcddata
  1607  0189                     l2007:	
  1608  0189  300D               	movlw	13
  1609  018A  00F6               	movwf	??_scan_key+2
  1610  018B  30AF               	movlw	175
  1611  018C  00F5               	movwf	??_scan_key+1
  1612  018D  30B6               	movlw	182
  1613  018E  00F4               	movwf	??_scan_key
  1614  018F                     u2867:	
  1615  018F  0BF4               	decfsz	??_scan_key,f
  1616  0190  298F               	goto	u2867
  1617  0191  0BF5               	decfsz	??_scan_key+1,f
  1618  0192  298F               	goto	u2867
  1619  0193  0BF6               	decfsz	??_scan_key+2,f
  1620  0194  298F               	goto	u2867
  1621  0195  0000               	nop
  1622  0196                     l2009:	
  1623  0196  3036               	movlw	54
  1624  0197  00F4               	movwf	??_scan_key
  1625  0198  0874               	movf	??_scan_key,w
  1626  0199  00F7               	movwf	scan_key@d
  1627  019A                     l2011:	
  1628  019A  3061               	movlw	97
  1629  019B  00F4               	movwf	??_scan_key
  1630  019C  0874               	movf	??_scan_key,w
  1631  019D  00F8               	movwf	scan_key@c
  1632  019E                     l2013:	
  1633                           
  1634                           ;calc.c: 158: if(RC7==1 ){ lcddata('*');_delay((unsigned long)((500)*(20e6/4000.0)));d= 
      +                          '*';c='a';}
  1635  019E  1283               	bcf	3,5	;RP0=0, select bank0
  1636  019F  1303               	bcf	3,6	;RP1=0, select bank0
  1637  01A0  1F87               	btfss	7,7	;volatile
  1638  01A1  29A3               	goto	u2181
  1639  01A2  29A4               	goto	u2180
  1640  01A3                     u2181:	
  1641  01A3  29BF               	goto	l2023
  1642  01A4                     u2180:	
  1643  01A4                     l2015:	
  1644  01A4  302A               	movlw	42
  1645  01A5  120A  158A  22DC  120A  118A  	fcall	_lcddata
  1646  01AA                     l2017:	
  1647  01AA  300D               	movlw	13
  1648  01AB  00F6               	movwf	??_scan_key+2
  1649  01AC  30AF               	movlw	175
  1650  01AD  00F5               	movwf	??_scan_key+1
  1651  01AE  30B6               	movlw	182
  1652  01AF  00F4               	movwf	??_scan_key
  1653  01B0                     u2877:	
  1654  01B0  0BF4               	decfsz	??_scan_key,f
  1655  01B1  29B0               	goto	u2877
  1656  01B2  0BF5               	decfsz	??_scan_key+1,f
  1657  01B3  29B0               	goto	u2877
  1658  01B4  0BF6               	decfsz	??_scan_key+2,f
  1659  01B5  29B0               	goto	u2877
  1660  01B6  0000               	nop
  1661  01B7                     l2019:	
  1662  01B7  302A               	movlw	42
  1663  01B8  00F4               	movwf	??_scan_key
  1664  01B9  0874               	movf	??_scan_key,w
  1665  01BA  00F7               	movwf	scan_key@d
  1666  01BB                     l2021:	
  1667  01BB  3061               	movlw	97
  1668  01BC  00F4               	movwf	??_scan_key
  1669  01BD  0874               	movf	??_scan_key,w
  1670  01BE  00F8               	movwf	scan_key@c
  1671  01BF                     l2023:	
  1672                           
  1673                           ;calc.c: 160: RC0=0;RC1=0;RC2=1;RC3=0;
  1674  01BF  1283               	bcf	3,5	;RP0=0, select bank0
  1675  01C0  1303               	bcf	3,6	;RP1=0, select bank0
  1676  01C1  1007               	bcf	7,0	;volatile
  1677  01C2                     l2025:	
  1678  01C2  1087               	bcf	7,1	;volatile
  1679  01C3                     l2027:	
  1680  01C3  1507               	bsf	7,2	;volatile
  1681  01C4                     l2029:	
  1682  01C4  1187               	bcf	7,3	;volatile
  1683  01C5                     l2031:	
  1684                           
  1685                           ;calc.c: 162: if(RC4==1 ){ lcddata('1');_delay((unsigned long)((500)*(20e6/4000.0)));d= 
      +                          '1';c='a';}
  1686  01C5  1E07               	btfss	7,4	;volatile
  1687  01C6  29C8               	goto	u2191
  1688  01C7  29C9               	goto	u2190
  1689  01C8                     u2191:	
  1690  01C8  29E4               	goto	l2041
  1691  01C9                     u2190:	
  1692  01C9                     l2033:	
  1693  01C9  3031               	movlw	49
  1694  01CA  120A  158A  22DC  120A  118A  	fcall	_lcddata
  1695  01CF                     l2035:	
  1696  01CF  300D               	movlw	13
  1697  01D0  00F6               	movwf	??_scan_key+2
  1698  01D1  30AF               	movlw	175
  1699  01D2  00F5               	movwf	??_scan_key+1
  1700  01D3  30B6               	movlw	182
  1701  01D4  00F4               	movwf	??_scan_key
  1702  01D5                     u2887:	
  1703  01D5  0BF4               	decfsz	??_scan_key,f
  1704  01D6  29D5               	goto	u2887
  1705  01D7  0BF5               	decfsz	??_scan_key+1,f
  1706  01D8  29D5               	goto	u2887
  1707  01D9  0BF6               	decfsz	??_scan_key+2,f
  1708  01DA  29D5               	goto	u2887
  1709  01DB  0000               	nop
  1710  01DC                     l2037:	
  1711  01DC  3031               	movlw	49
  1712  01DD  00F4               	movwf	??_scan_key
  1713  01DE  0874               	movf	??_scan_key,w
  1714  01DF  00F7               	movwf	scan_key@d
  1715  01E0                     l2039:	
  1716  01E0  3061               	movlw	97
  1717  01E1  00F4               	movwf	??_scan_key
  1718  01E2  0874               	movf	??_scan_key,w
  1719  01E3  00F8               	movwf	scan_key@c
  1720  01E4                     l2041:	
  1721                           
  1722                           ;calc.c: 163: if(RC5==1 ){ lcddata('2');_delay((unsigned long)((500)*(20e6/4000.0)));d= 
      +                          '2';c='a';}
  1723  01E4  1283               	bcf	3,5	;RP0=0, select bank0
  1724  01E5  1303               	bcf	3,6	;RP1=0, select bank0
  1725  01E6  1E87               	btfss	7,5	;volatile
  1726  01E7  29E9               	goto	u2201
  1727  01E8  29EA               	goto	u2200
  1728  01E9                     u2201:	
  1729  01E9  2A05               	goto	l2051
  1730  01EA                     u2200:	
  1731  01EA                     l2043:	
  1732  01EA  3032               	movlw	50
  1733  01EB  120A  158A  22DC  120A  118A  	fcall	_lcddata
  1734  01F0                     l2045:	
  1735  01F0  300D               	movlw	13
  1736  01F1  00F6               	movwf	??_scan_key+2
  1737  01F2  30AF               	movlw	175
  1738  01F3  00F5               	movwf	??_scan_key+1
  1739  01F4  30B6               	movlw	182
  1740  01F5  00F4               	movwf	??_scan_key
  1741  01F6                     u2897:	
  1742  01F6  0BF4               	decfsz	??_scan_key,f
  1743  01F7  29F6               	goto	u2897
  1744  01F8  0BF5               	decfsz	??_scan_key+1,f
  1745  01F9  29F6               	goto	u2897
  1746  01FA  0BF6               	decfsz	??_scan_key+2,f
  1747  01FB  29F6               	goto	u2897
  1748  01FC  0000               	nop
  1749  01FD                     l2047:	
  1750  01FD  3032               	movlw	50
  1751  01FE  00F4               	movwf	??_scan_key
  1752  01FF  0874               	movf	??_scan_key,w
  1753  0200  00F7               	movwf	scan_key@d
  1754  0201                     l2049:	
  1755  0201  3061               	movlw	97
  1756  0202  00F4               	movwf	??_scan_key
  1757  0203  0874               	movf	??_scan_key,w
  1758  0204  00F8               	movwf	scan_key@c
  1759  0205                     l2051:	
  1760                           
  1761                           ;calc.c: 164: if(RC6==1 ){ lcddata('3');_delay((unsigned long)((500)*(20e6/4000.0)));d= 
      +                          '3';c='a';}
  1762  0205  1283               	bcf	3,5	;RP0=0, select bank0
  1763  0206  1303               	bcf	3,6	;RP1=0, select bank0
  1764  0207  1F07               	btfss	7,6	;volatile
  1765  0208  2A0A               	goto	u2211
  1766  0209  2A0B               	goto	u2210
  1767  020A                     u2211:	
  1768  020A  2A26               	goto	l2061
  1769  020B                     u2210:	
  1770  020B                     l2053:	
  1771  020B  3033               	movlw	51
  1772  020C  120A  158A  22DC  120A  118A  	fcall	_lcddata
  1773  0211                     l2055:	
  1774  0211  300D               	movlw	13
  1775  0212  00F6               	movwf	??_scan_key+2
  1776  0213  30AF               	movlw	175
  1777  0214  00F5               	movwf	??_scan_key+1
  1778  0215  30B6               	movlw	182
  1779  0216  00F4               	movwf	??_scan_key
  1780  0217                     u2907:	
  1781  0217  0BF4               	decfsz	??_scan_key,f
  1782  0218  2A17               	goto	u2907
  1783  0219  0BF5               	decfsz	??_scan_key+1,f
  1784  021A  2A17               	goto	u2907
  1785  021B  0BF6               	decfsz	??_scan_key+2,f
  1786  021C  2A17               	goto	u2907
  1787  021D  0000               	nop
  1788  021E                     l2057:	
  1789  021E  3033               	movlw	51
  1790  021F  00F4               	movwf	??_scan_key
  1791  0220  0874               	movf	??_scan_key,w
  1792  0221  00F7               	movwf	scan_key@d
  1793  0222                     l2059:	
  1794  0222  3061               	movlw	97
  1795  0223  00F4               	movwf	??_scan_key
  1796  0224  0874               	movf	??_scan_key,w
  1797  0225  00F8               	movwf	scan_key@c
  1798  0226                     l2061:	
  1799                           
  1800                           ;calc.c: 165: if(RC7==1 ){ lcddata('-');_delay((unsigned long)((500)*(20e6/4000.0)));d= 
      +                          '-';c='a';}
  1801  0226  1283               	bcf	3,5	;RP0=0, select bank0
  1802  0227  1303               	bcf	3,6	;RP1=0, select bank0
  1803  0228  1F87               	btfss	7,7	;volatile
  1804  0229  2A2B               	goto	u2221
  1805  022A  2A2C               	goto	u2220
  1806  022B                     u2221:	
  1807  022B  2A47               	goto	l2071
  1808  022C                     u2220:	
  1809  022C                     l2063:	
  1810  022C  302D               	movlw	45
  1811  022D  120A  158A  22DC  120A  118A  	fcall	_lcddata
  1812  0232                     l2065:	
  1813  0232  300D               	movlw	13
  1814  0233  00F6               	movwf	??_scan_key+2
  1815  0234  30AF               	movlw	175
  1816  0235  00F5               	movwf	??_scan_key+1
  1817  0236  30B6               	movlw	182
  1818  0237  00F4               	movwf	??_scan_key
  1819  0238                     u2917:	
  1820  0238  0BF4               	decfsz	??_scan_key,f
  1821  0239  2A38               	goto	u2917
  1822  023A  0BF5               	decfsz	??_scan_key+1,f
  1823  023B  2A38               	goto	u2917
  1824  023C  0BF6               	decfsz	??_scan_key+2,f
  1825  023D  2A38               	goto	u2917
  1826  023E  0000               	nop
  1827  023F                     l2067:	
  1828  023F  302D               	movlw	45
  1829  0240  00F4               	movwf	??_scan_key
  1830  0241  0874               	movf	??_scan_key,w
  1831  0242  00F7               	movwf	scan_key@d
  1832  0243                     l2069:	
  1833  0243  3061               	movlw	97
  1834  0244  00F4               	movwf	??_scan_key
  1835  0245  0874               	movf	??_scan_key,w
  1836  0246  00F8               	movwf	scan_key@c
  1837  0247                     l2071:	
  1838                           
  1839                           ;calc.c: 167: RC0=0;RC1=0;RC2=0;RC3=1;
  1840  0247  1283               	bcf	3,5	;RP0=0, select bank0
  1841  0248  1303               	bcf	3,6	;RP1=0, select bank0
  1842  0249  1007               	bcf	7,0	;volatile
  1843  024A                     l2073:	
  1844  024A  1087               	bcf	7,1	;volatile
  1845  024B                     l2075:	
  1846  024B  1107               	bcf	7,2	;volatile
  1847  024C                     l2077:	
  1848  024C  1587               	bsf	7,3	;volatile
  1849  024D                     l2079:	
  1850                           
  1851                           ;calc.c: 169: if(RC5==1 ){ lcddata('0');_delay((unsigned long)((500)*(20e6/4000.0)));d= 
      +                          '0';c='a';}
  1852  024D  1E87               	btfss	7,5	;volatile
  1853  024E  2A50               	goto	u2231
  1854  024F  2A51               	goto	u2230
  1855  0250                     u2231:	
  1856  0250  2A6C               	goto	l2089
  1857  0251                     u2230:	
  1858  0251                     l2081:	
  1859  0251  3030               	movlw	48
  1860  0252  120A  158A  22DC  120A  118A  	fcall	_lcddata
  1861  0257                     l2083:	
  1862  0257  300D               	movlw	13
  1863  0258  00F6               	movwf	??_scan_key+2
  1864  0259  30AF               	movlw	175
  1865  025A  00F5               	movwf	??_scan_key+1
  1866  025B  30B6               	movlw	182
  1867  025C  00F4               	movwf	??_scan_key
  1868  025D                     u2927:	
  1869  025D  0BF4               	decfsz	??_scan_key,f
  1870  025E  2A5D               	goto	u2927
  1871  025F  0BF5               	decfsz	??_scan_key+1,f
  1872  0260  2A5D               	goto	u2927
  1873  0261  0BF6               	decfsz	??_scan_key+2,f
  1874  0262  2A5D               	goto	u2927
  1875  0263  0000               	nop
  1876  0264                     l2085:	
  1877  0264  3030               	movlw	48
  1878  0265  00F4               	movwf	??_scan_key
  1879  0266  0874               	movf	??_scan_key,w
  1880  0267  00F7               	movwf	scan_key@d
  1881  0268                     l2087:	
  1882  0268  3061               	movlw	97
  1883  0269  00F4               	movwf	??_scan_key
  1884  026A  0874               	movf	??_scan_key,w
  1885  026B  00F8               	movwf	scan_key@c
  1886  026C                     l2089:	
  1887                           
  1888                           ;calc.c: 170: if(RC7==1 ){ lcddata('+');_delay((unsigned long)((500)*(20e6/4000.0)));d= 
      +                          '+';c='a';}
  1889  026C  1283               	bcf	3,5	;RP0=0, select bank0
  1890  026D  1303               	bcf	3,6	;RP1=0, select bank0
  1891  026E  1F87               	btfss	7,7	;volatile
  1892  026F  2A71               	goto	u2241
  1893  0270  2A72               	goto	u2240
  1894  0271                     u2241:	
  1895  0271  2A8D               	goto	l2099
  1896  0272                     u2240:	
  1897  0272                     l2091:	
  1898  0272  302B               	movlw	43
  1899  0273  120A  158A  22DC  120A  118A  	fcall	_lcddata
  1900  0278                     l2093:	
  1901  0278  300D               	movlw	13
  1902  0279  00F6               	movwf	??_scan_key+2
  1903  027A  30AF               	movlw	175
  1904  027B  00F5               	movwf	??_scan_key+1
  1905  027C  30B6               	movlw	182
  1906  027D  00F4               	movwf	??_scan_key
  1907  027E                     u2937:	
  1908  027E  0BF4               	decfsz	??_scan_key,f
  1909  027F  2A7E               	goto	u2937
  1910  0280  0BF5               	decfsz	??_scan_key+1,f
  1911  0281  2A7E               	goto	u2937
  1912  0282  0BF6               	decfsz	??_scan_key+2,f
  1913  0283  2A7E               	goto	u2937
  1914  0284  0000               	nop
  1915  0285                     l2095:	
  1916  0285  302B               	movlw	43
  1917  0286  00F4               	movwf	??_scan_key
  1918  0287  0874               	movf	??_scan_key,w
  1919  0288  00F7               	movwf	scan_key@d
  1920  0289                     l2097:	
  1921  0289  3061               	movlw	97
  1922  028A  00F4               	movwf	??_scan_key
  1923  028B  0874               	movf	??_scan_key,w
  1924  028C  00F8               	movwf	scan_key@c
  1925  028D                     l2099:	
  1926                           
  1927                           ;calc.c: 145: while(c!='a')
  1928  028D  3061               	movlw	97
  1929  028E  0678               	xorwf	scan_key@c,w
  1930  028F  1D03               	btfss	3,2
  1931  0290  2A92               	goto	u2251
  1932  0291  2A93               	goto	u2250
  1933  0292                     u2251:	
  1934  0292  28AF               	goto	l91
  1935  0293                     u2250:	
  1936  0293                     l2101:	
  1937                           
  1938                           ;calc.c: 172: return d;
  1939  0293  0877               	movf	scan_key@d,w
  1940  0294                     l107:	
  1941  0294  0008               	return
  1942  0295                     __end_of_scan_key:	
  1943                           
  1944                           	psect	text2
  1945  0BDC                     __ptext2:	
  1946 ;; *************** function _lcdinit *****************
  1947 ;; Defined at:
  1948 ;;		line 29 in file "calc.c"
  1949 ;; Parameters:    Size  Location     Type
  1950 ;;		None
  1951 ;; Auto vars:     Size  Location     Type
  1952 ;;		None
  1953 ;; Return value:  Size  Location     Type
  1954 ;;                  1    wreg      void 
  1955 ;; Registers used:
  1956 ;;		wreg, status,2, status,0, pclath, cstack
  1957 ;; Tracked objects:
  1958 ;;		On entry : 0/0
  1959 ;;		On exit  : 0/0
  1960 ;;		Unchanged: 0/0
  1961 ;; Data sizes:     COMMON   BANK0   BANK1   BANK3   BANK2
  1962 ;;      Params:         0       0       0       0       0
  1963 ;;      Locals:         0       0       0       0       0
  1964 ;;      Temps:          3       0       0       0       0
  1965 ;;      Totals:         3       0       0       0       0
  1966 ;;Total ram usage:        3 bytes
  1967 ;; Hardware stack levels used:    1
  1968 ;; Hardware stack levels required when called:    1
  1969 ;; This function calls:
  1970 ;;		_lcdcmd
  1971 ;; This function is called by:
  1972 ;;		_main
  1973 ;; This function uses a non-reentrant model
  1974 ;;
  1975                           
  1976                           
  1977                           ;psect for function _lcdinit
  1978  0BDC                     _lcdinit:	
  1979  0BDC                     l1915:	
  1980                           ;incstack = 0
  1981                           ; Regs used in _lcdinit: [wreg+status,2+status,0+pclath+cstack]
  1982                           
  1983                           
  1984                           ;calc.c: 30:  _delay((unsigned long)((400)*(20e6/4000.0))); lcdcmd(0x30); _delay((unsign
      +                          ed long)((400)*(20e6/4000.0))); lcdcmd(0x30);
  1985  0BDC  300B               	movlw	11
  1986  0BDD  00F6               	movwf	??_lcdinit+2
  1987  0BDE  3026               	movlw	38
  1988  0BDF  00F5               	movwf	??_lcdinit+1
  1989  0BE0  305D               	movlw	93
  1990  0BE1  00F4               	movwf	??_lcdinit
  1991  0BE2                     u2947:	
  1992  0BE2  0BF4               	decfsz	??_lcdinit,f
  1993  0BE3  2BE2               	goto	u2947
  1994  0BE4  0BF5               	decfsz	??_lcdinit+1,f
  1995  0BE5  2BE2               	goto	u2947
  1996  0BE6  0BF6               	decfsz	??_lcdinit+2,f
  1997  0BE7  2BE2               	goto	u2947
  1998  0BE8  2BE9               	nop2
  1999  0BE9                     l1917:	
  2000  0BE9  3030               	movlw	48
  2001  0BEA  120A  158A  22B7  120A  158A  	fcall	_lcdcmd
  2002  0BEF                     l1919:	
  2003  0BEF  300B               	movlw	11
  2004  0BF0  00F6               	movwf	??_lcdinit+2
  2005  0BF1  3026               	movlw	38
  2006  0BF2  00F5               	movwf	??_lcdinit+1
  2007  0BF3  305D               	movlw	93
  2008  0BF4  00F4               	movwf	??_lcdinit
  2009  0BF5                     u2957:	
  2010  0BF5  0BF4               	decfsz	??_lcdinit,f
  2011  0BF6  2BF5               	goto	u2957
  2012  0BF7  0BF5               	decfsz	??_lcdinit+1,f
  2013  0BF8  2BF5               	goto	u2957
  2014  0BF9  0BF6               	decfsz	??_lcdinit+2,f
  2015  0BFA  2BF5               	goto	u2957
  2016  0BFB  2BFC               	nop2
  2017  0BFC  3030               	movlw	48
  2018  0BFD  120A  158A  22B7  120A  158A  	fcall	_lcdcmd
  2019  0C02                     l1921:	
  2020                           
  2021                           ;calc.c: 31: _delay((unsigned long)((400)*(20e6/4000.0))); lcdcmd(0x30); _delay((unsigne
      +                          d long)((400)*(20e6/4000.0))); lcdcmd(0x38);
  2022  0C02  300B               	movlw	11
  2023  0C03  00F6               	movwf	??_lcdinit+2
  2024  0C04  3026               	movlw	38
  2025  0C05  00F5               	movwf	??_lcdinit+1
  2026  0C06  305D               	movlw	93
  2027  0C07  00F4               	movwf	??_lcdinit
  2028  0C08                     u2967:	
  2029  0C08  0BF4               	decfsz	??_lcdinit,f
  2030  0C09  2C08               	goto	u2967
  2031  0C0A  0BF5               	decfsz	??_lcdinit+1,f
  2032  0C0B  2C08               	goto	u2967
  2033  0C0C  0BF6               	decfsz	??_lcdinit+2,f
  2034  0C0D  2C08               	goto	u2967
  2035  0C0E  2C0F               	nop2
  2036  0C0F                     l1923:	
  2037  0C0F  3030               	movlw	48
  2038  0C10  120A  158A  22B7  120A  158A  	fcall	_lcdcmd
  2039  0C15  300B               	movlw	11
  2040  0C16  00F6               	movwf	??_lcdinit+2
  2041  0C17  3026               	movlw	38
  2042  0C18  00F5               	movwf	??_lcdinit+1
  2043  0C19  305D               	movlw	93
  2044  0C1A  00F4               	movwf	??_lcdinit
  2045  0C1B                     u2977:	
  2046  0C1B  0BF4               	decfsz	??_lcdinit,f
  2047  0C1C  2C1B               	goto	u2977
  2048  0C1D  0BF5               	decfsz	??_lcdinit+1,f
  2049  0C1E  2C1B               	goto	u2977
  2050  0C1F  0BF6               	decfsz	??_lcdinit+2,f
  2051  0C20  2C1B               	goto	u2977
  2052  0C21  2C22               	nop2
  2053  0C22                     l1925:	
  2054  0C22  3038               	movlw	56
  2055  0C23  120A  158A  22B7  120A  158A  	fcall	_lcdcmd
  2056  0C28                     l1927:	
  2057                           
  2058                           ;calc.c: 32:     lcdcmd(0x0F);
  2059  0C28  300F               	movlw	15
  2060  0C29  120A  158A  22B7  120A  158A  	fcall	_lcdcmd
  2061  0C2E                     l1929:	
  2062                           
  2063                           ;calc.c: 33:     lcdcmd(0x01);
  2064  0C2E  3001               	movlw	1
  2065  0C2F  120A  158A  22B7  120A  158A  	fcall	_lcdcmd
  2066  0C34                     l1931:	
  2067                           
  2068                           ;calc.c: 34:     lcdcmd(0x06);
  2069  0C34  3006               	movlw	6
  2070  0C35  120A  158A  22B7  120A  158A  	fcall	_lcdcmd
  2071  0C3A                     l1933:	
  2072                           
  2073                           ;calc.c: 35:     lcdcmd(0x80);
  2074  0C3A  3080               	movlw	128
  2075  0C3B  120A  158A  22B7  120A  158A  	fcall	_lcdcmd
  2076  0C40                     l55:	
  2077  0C40  0008               	return
  2078  0C41                     __end_of_lcdinit:	
  2079                           
  2080                           	psect	text3
  2081  0B81                     __ptext3:	
  2082 ;; *************** function _get_num *****************
  2083 ;; Defined at:
  2084 ;;		line 176 in file "calc.c"
  2085 ;; Parameters:    Size  Location     Type
  2086 ;;  ch              1    wreg     unsigned char 
  2087 ;; Auto vars:     Size  Location     Type
  2088 ;;  ch              1    4[COMMON] unsigned char 
  2089 ;; Return value:  Size  Location     Type
  2090 ;;                  2    0[COMMON] int 
  2091 ;; Registers used:
  2092 ;;		wreg, fsr0l, fsr0h, status,2, status,0
  2093 ;; Tracked objects:
  2094 ;;		On entry : 0/0
  2095 ;;		On exit  : 0/0
  2096 ;;		Unchanged: 0/0
  2097 ;; Data sizes:     COMMON   BANK0   BANK1   BANK3   BANK2
  2098 ;;      Params:         2       0       0       0       0
  2099 ;;      Locals:         1       0       0       0       0
  2100 ;;      Temps:          2       0       0       0       0
  2101 ;;      Totals:         5       0       0       0       0
  2102 ;;Total ram usage:        5 bytes
  2103 ;; Hardware stack levels used:    1
  2104 ;; This function calls:
  2105 ;;		Nothing
  2106 ;; This function is called by:
  2107 ;;		_main
  2108 ;; This function uses a non-reentrant model
  2109 ;;
  2110                           
  2111                           
  2112                           ;psect for function _get_num
  2113  0B81                     _get_num:	
  2114                           
  2115                           ;incstack = 0
  2116                           ; Regs used in _get_num: [wreg-fsr0h+status,2+status,0]
  2117                           ;get_num@ch stored from wreg
  2118  0B81  00F4               	movwf	get_num@ch
  2119  0B82                     l2105:	
  2120                           
  2121                           ;calc.c: 176: int get_num(char ch);calc.c: 177: {;calc.c: 178: switch(ch)
  2122  0B82  2BB3               	goto	l2133
  2123  0B83                     l2107:	
  2124  0B83  01F0               	clrf	?_get_num
  2125  0B84  01F1               	clrf	?_get_num+1
  2126  0B85  2BDB               	goto	l112
  2127  0B86                     l114:	
  2128                           ;calc.c: 181: case '1': return 1; break;
  2129                           
  2130  0B86  3001               	movlw	1
  2131  0B87  00F0               	movwf	?_get_num
  2132  0B88  3000               	movlw	0
  2133  0B89  00F1               	movwf	?_get_num+1
  2134  0B8A  2BDB               	goto	l112
  2135  0B8B                     l115:	
  2136                           ;calc.c: 182: case '2': return 2; break;
  2137                           
  2138  0B8B  3002               	movlw	2
  2139  0B8C  00F0               	movwf	?_get_num
  2140  0B8D  3000               	movlw	0
  2141  0B8E  00F1               	movwf	?_get_num+1
  2142  0B8F  2BDB               	goto	l112
  2143  0B90                     l116:	
  2144                           ;calc.c: 183: case '3': return 3; break;
  2145                           
  2146  0B90  3003               	movlw	3
  2147  0B91  00F0               	movwf	?_get_num
  2148  0B92  3000               	movlw	0
  2149  0B93  00F1               	movwf	?_get_num+1
  2150  0B94  2BDB               	goto	l112
  2151  0B95                     l117:	
  2152                           ;calc.c: 184: case '4': return 4; break;
  2153                           
  2154  0B95  3004               	movlw	4
  2155  0B96  00F0               	movwf	?_get_num
  2156  0B97  3000               	movlw	0
  2157  0B98  00F1               	movwf	?_get_num+1
  2158  0B99  2BDB               	goto	l112
  2159  0B9A                     l118:	
  2160                           ;calc.c: 185: case '5': return 5; break;
  2161                           
  2162  0B9A  3005               	movlw	5
  2163  0B9B  00F0               	movwf	?_get_num
  2164  0B9C  3000               	movlw	0
  2165  0B9D  00F1               	movwf	?_get_num+1
  2166  0B9E  2BDB               	goto	l112
  2167  0B9F                     l119:	
  2168                           ;calc.c: 186: case '6': return 6; break;
  2169                           
  2170  0B9F  3006               	movlw	6
  2171  0BA0  00F0               	movwf	?_get_num
  2172  0BA1  3000               	movlw	0
  2173  0BA2  00F1               	movwf	?_get_num+1
  2174  0BA3  2BDB               	goto	l112
  2175  0BA4                     l120:	
  2176                           ;calc.c: 187: case '7': return 7; break;
  2177                           
  2178  0BA4  3007               	movlw	7
  2179  0BA5  00F0               	movwf	?_get_num
  2180  0BA6  3000               	movlw	0
  2181  0BA7  00F1               	movwf	?_get_num+1
  2182  0BA8  2BDB               	goto	l112
  2183  0BA9                     l121:	
  2184                           ;calc.c: 188: case '8': return 8; break;
  2185                           
  2186  0BA9  3008               	movlw	8
  2187  0BAA  00F0               	movwf	?_get_num
  2188  0BAB  3000               	movlw	0
  2189  0BAC  00F1               	movwf	?_get_num+1
  2190  0BAD  2BDB               	goto	l112
  2191  0BAE                     l122:	
  2192                           ;calc.c: 189: case '9': return 9; break;
  2193                           
  2194  0BAE  3009               	movlw	9
  2195  0BAF  00F0               	movwf	?_get_num
  2196  0BB0  3000               	movlw	0
  2197  0BB1  00F1               	movwf	?_get_num+1
  2198  0BB2  2BDB               	goto	l112
  2199  0BB3                     l2133:	
  2200  0BB3  0874               	movf	get_num@ch,w
  2201  0BB4  00F2               	movwf	??_get_num
  2202  0BB5  01F3               	clrf	??_get_num+1
  2203                           
  2204                           ; Switch on 2 bytes has been partitioned into a top level switch of size 1, and 1 sub-sw
      +                          itches
  2205                           ; Switch size 1, requested type "simple"
  2206                           ; Number of cases is 1, Range of values is 0 to 0
  2207                           ; switch strategies available:
  2208                           ; Name         Instructions Cycles
  2209                           ; simple_byte            4     3 (average)
  2210                           ; direct_byte           11     8 (fixed)
  2211                           ; jumptable            260     6 (fixed)
  2212                           ;	Chosen strategy is simple_byte
  2213  0BB6  0873               	movf	??_get_num+1,w
  2214  0BB7  3A00               	xorlw	0	; case 0
  2215  0BB8  1903               	skipnz
  2216  0BB9  2BBB               	goto	l2509
  2217  0BBA  2B83               	goto	l2107
  2218  0BBB                     l2509:	
  2219                           
  2220                           ; Switch size 1, requested type "simple"
  2221                           ; Number of cases is 10, Range of values is 48 to 57
  2222                           ; switch strategies available:
  2223                           ; Name         Instructions Cycles
  2224                           ; simple_byte           31    16 (average)
  2225                           ; direct_byte           41    11 (fixed)
  2226                           ; jumptable            263     9 (fixed)
  2227                           ;	Chosen strategy is simple_byte
  2228  0BBB  0872               	movf	??_get_num,w
  2229  0BBC  3A30               	xorlw	48	; case 48
  2230  0BBD  1903               	skipnz
  2231  0BBE  2B83               	goto	l2107
  2232  0BBF  3A01               	xorlw	1	; case 49
  2233  0BC0  1903               	skipnz
  2234  0BC1  2B86               	goto	l114
  2235  0BC2  3A03               	xorlw	3	; case 50
  2236  0BC3  1903               	skipnz
  2237  0BC4  2B8B               	goto	l115
  2238  0BC5  3A01               	xorlw	1	; case 51
  2239  0BC6  1903               	skipnz
  2240  0BC7  2B90               	goto	l116
  2241  0BC8  3A07               	xorlw	7	; case 52
  2242  0BC9  1903               	skipnz
  2243  0BCA  2B95               	goto	l117
  2244  0BCB  3A01               	xorlw	1	; case 53
  2245  0BCC  1903               	skipnz
  2246  0BCD  2B9A               	goto	l118
  2247  0BCE  3A03               	xorlw	3	; case 54
  2248  0BCF  1903               	skipnz
  2249  0BD0  2B9F               	goto	l119
  2250  0BD1  3A01               	xorlw	1	; case 55
  2251  0BD2  1903               	skipnz
  2252  0BD3  2BA4               	goto	l120
  2253  0BD4  3A0F               	xorlw	15	; case 56
  2254  0BD5  1903               	skipnz
  2255  0BD6  2BA9               	goto	l121
  2256  0BD7  3A01               	xorlw	1	; case 57
  2257  0BD8  1903               	skipnz
  2258  0BD9  2BAE               	goto	l122
  2259  0BDA  2B83               	goto	l2107
  2260  0BDB                     l112:	
  2261  0BDB  0008               	return
  2262  0BDC                     __end_of_get_num:	
  2263                           
  2264                           	psect	text4
  2265  0D64                     __ptext4:	
  2266 ;; *************** function _disp_num *****************
  2267 ;; Defined at:
  2268 ;;		line 194 in file "calc.c"
  2269 ;; Parameters:    Size  Location     Type
  2270 ;;  num             4   32[BANK0 ] float 
  2271 ;; Auto vars:     Size  Location     Type
  2272 ;;  numb            2   44[BANK0 ] int 
  2273 ;;  j               2   39[BANK0 ] int 
  2274 ;;  TenthDigit      1   43[BANK0 ] unsigned char 
  2275 ;;  decimal         1   42[BANK0 ] unsigned char 
  2276 ;;  UnitDigit       1   41[BANK0 ] unsigned char 
  2277 ;; Return value:  Size  Location     Type
  2278 ;;                  1    wreg      void 
  2279 ;; Registers used:
  2280 ;;		wreg, status,2, status,0, btemp+1, pclath, cstack
  2281 ;; Tracked objects:
  2282 ;;		On entry : 0/0
  2283 ;;		On exit  : 0/0
  2284 ;;		Unchanged: 0/0
  2285 ;; Data sizes:     COMMON   BANK0   BANK1   BANK3   BANK2
  2286 ;;      Params:         0       4       0       0       0
  2287 ;;      Locals:         0       7       0       0       0
  2288 ;;      Temps:          0       3       0       0       0
  2289 ;;      Totals:         0      14       0       0       0
  2290 ;;Total ram usage:       14 bytes
  2291 ;; Hardware stack levels used:    1
  2292 ;; Hardware stack levels required when called:    2
  2293 ;; This function calls:
  2294 ;;		___awdiv
  2295 ;;		___awmod
  2296 ;;		___bmul
  2297 ;;		___flmul
  2298 ;;		___fltol
  2299 ;;		_lcdcmd
  2300 ;;		_lcddata
  2301 ;; This function is called by:
  2302 ;;		_main
  2303 ;; This function uses a non-reentrant model
  2304 ;;
  2305                           
  2306                           
  2307                           ;psect for function _disp_num
  2308  0D64                     _disp_num:	
  2309  0D64                     l2143:	
  2310                           ;incstack = 0
  2311                           ; Regs used in _disp_num: [wreg+status,2+status,0+btemp+1+pclath+cstack]
  2312                           
  2313  0D64                     l2145:	
  2314                           
  2315                           ;calc.c: 201: j=(int)(num*10);
  2316  0D64  1283               	bcf	3,5	;RP0=0, select bank0
  2317  0D65  1303               	bcf	3,6	;RP1=0, select bank0
  2318  0D66  0843               	movf	disp_num@num+3,w
  2319  0D67  00A7               	movwf	___flmul@a+3
  2320  0D68  0842               	movf	disp_num@num+2,w
  2321  0D69  00A6               	movwf	___flmul@a+2
  2322  0D6A  0841               	movf	disp_num@num+1,w
  2323  0D6B  00A5               	movwf	___flmul@a+1
  2324  0D6C  0840               	movf	disp_num@num,w
  2325  0D6D  00A4               	movwf	___flmul@a
  2326  0D6E  3041               	movlw	65
  2327  0D6F  00A3               	movwf	___flmul@b+3
  2328  0D70  3020               	movlw	32
  2329  0D71  00A2               	movwf	___flmul@b+2
  2330  0D72  3000               	movlw	0
  2331  0D73  00A1               	movwf	___flmul@b+1
  2332  0D74  3000               	movlw	0
  2333  0D75  00A0               	movwf	___flmul@b
  2334  0D76  120A  118A  2480  120A  158A  	fcall	___flmul
  2335  0D7B  1283               	bcf	3,5	;RP0=0, select bank0
  2336  0D7C  1303               	bcf	3,6	;RP1=0, select bank0
  2337  0D7D  0823               	movf	?___flmul+3,w
  2338  0D7E  00B8               	movwf	___fltol@f1+3
  2339  0D7F  0822               	movf	?___flmul+2,w
  2340  0D80  00B7               	movwf	___fltol@f1+2
  2341  0D81  0821               	movf	?___flmul+1,w
  2342  0D82  00B6               	movwf	___fltol@f1+1
  2343  0D83  0820               	movf	?___flmul,w
  2344  0D84  00B5               	movwf	___fltol@f1
  2345  0D85  120A  118A  202E  120A  158A  	fcall	___fltol
  2346  0D8A  1283               	bcf	3,5	;RP0=0, select bank0
  2347  0D8B  1303               	bcf	3,6	;RP1=0, select bank0
  2348  0D8C  0836               	movf	?___fltol+1,w
  2349  0D8D  00C8               	movwf	disp_num@j+1
  2350  0D8E  0835               	movf	?___fltol,w
  2351  0D8F  00C7               	movwf	disp_num@j
  2352  0D90                     l2147:	
  2353                           
  2354                           ;calc.c: 202: numb=(int)num;
  2355  0D90  0843               	movf	disp_num@num+3,w
  2356  0D91  00B8               	movwf	___fltol@f1+3
  2357  0D92  0842               	movf	disp_num@num+2,w
  2358  0D93  00B7               	movwf	___fltol@f1+2
  2359  0D94  0841               	movf	disp_num@num+1,w
  2360  0D95  00B6               	movwf	___fltol@f1+1
  2361  0D96  0840               	movf	disp_num@num,w
  2362  0D97  00B5               	movwf	___fltol@f1
  2363  0D98  120A  118A  202E  120A  158A  	fcall	___fltol
  2364  0D9D  1283               	bcf	3,5	;RP0=0, select bank0
  2365  0D9E  1303               	bcf	3,6	;RP1=0, select bank0
  2366  0D9F  0836               	movf	?___fltol+1,w
  2367  0DA0  00CD               	movwf	disp_num@numb+1
  2368  0DA1  0835               	movf	?___fltol,w
  2369  0DA2  00CC               	movwf	disp_num@numb
  2370  0DA3                     l2149:	
  2371                           
  2372                           ;calc.c: 204: if(numb<0)
  2373  0DA3  1FCD               	btfss	disp_num@numb+1,7
  2374  0DA4  2DA6               	goto	u2261
  2375  0DA5  2DA7               	goto	u2260
  2376  0DA6                     u2261:	
  2377  0DA6  2DB2               	goto	l2155
  2378  0DA7                     u2260:	
  2379  0DA7                     l2151:	
  2380                           
  2381                           ;calc.c: 205: {;calc.c: 206: numb = -1*numb;
  2382  0DA7  09CC               	comf	disp_num@numb,f
  2383  0DA8  09CD               	comf	disp_num@numb+1,f
  2384  0DA9  0ACC               	incf	disp_num@numb,f
  2385  0DAA  1903               	skipnz
  2386  0DAB  0ACD               	incf	disp_num@numb+1,f
  2387  0DAC                     l2153:	
  2388                           
  2389                           ;calc.c: 207: lcddata('-');
  2390  0DAC  302D               	movlw	45
  2391  0DAD  120A  158A  22DC  120A  158A  	fcall	_lcddata
  2392  0DB2                     l2155:	
  2393                           
  2394                           ;calc.c: 210: TenthDigit = (numb/10);
  2395  0DB2  300A               	movlw	10
  2396  0DB3  00F0               	movwf	___awdiv@divisor
  2397  0DB4  3000               	movlw	0
  2398  0DB5  00F1               	movwf	___awdiv@divisor+1
  2399  0DB6  1283               	bcf	3,5	;RP0=0, select bank0
  2400  0DB7  1303               	bcf	3,6	;RP1=0, select bank0
  2401  0DB8  084D               	movf	disp_num@numb+1,w
  2402  0DB9  00F3               	movwf	___awdiv@dividend+1
  2403  0DBA  084C               	movf	disp_num@numb,w
  2404  0DBB  00F2               	movwf	___awdiv@dividend
  2405  0DBC  120A  158A  2441  120A  158A  	fcall	___awdiv
  2406  0DC1  0870               	movf	?___awdiv,w
  2407  0DC2  1283               	bcf	3,5	;RP0=0, select bank0
  2408  0DC3  1303               	bcf	3,6	;RP1=0, select bank0
  2409  0DC4  00C4               	movwf	??_disp_num
  2410  0DC5  0844               	movf	??_disp_num,w
  2411  0DC6  00CB               	movwf	disp_num@TenthDigit
  2412  0DC7                     l2157:	
  2413                           
  2414                           ;calc.c: 212: if( TenthDigit != 0)
  2415  0DC7  084B               	movf	disp_num@TenthDigit,w
  2416  0DC8  1903               	btfsc	3,2
  2417  0DC9  2DCB               	goto	u2271
  2418  0DCA  2DCC               	goto	u2270
  2419  0DCB                     u2271:	
  2420  0DCB  2DD3               	goto	l126
  2421  0DCC                     u2270:	
  2422  0DCC                     l2159:	
  2423                           
  2424                           ;calc.c: 213: lcddata(TenthDigit+0x30);
  2425  0DCC  084B               	movf	disp_num@TenthDigit,w
  2426  0DCD  3E30               	addlw	48
  2427  0DCE  120A  158A  22DC  120A  158A  	fcall	_lcddata
  2428  0DD3                     l126:	
  2429                           
  2430                           ;calc.c: 215: UnitDigit = numb - (TenthDigit*10);
  2431  0DD3  30F6               	movlw	246
  2432  0DD4  1283               	bcf	3,5	;RP0=0, select bank0
  2433  0DD5  1303               	bcf	3,6	;RP1=0, select bank0
  2434  0DD6  00C4               	movwf	??_disp_num
  2435  0DD7  0844               	movf	??_disp_num,w
  2436  0DD8  00F0               	movwf	___bmul@multiplicand
  2437  0DD9  084B               	movf	disp_num@TenthDigit,w
  2438  0DDA  120A  158A  227D  120A  158A  	fcall	___bmul
  2439  0DDF  1283               	bcf	3,5	;RP0=0, select bank0
  2440  0DE0  1303               	bcf	3,6	;RP1=0, select bank0
  2441  0DE1  074C               	addwf	disp_num@numb,w
  2442  0DE2  00C5               	movwf	??_disp_num+1
  2443  0DE3  0845               	movf	??_disp_num+1,w
  2444  0DE4  00C9               	movwf	disp_num@UnitDigit
  2445                           
  2446                           ;calc.c: 217: lcddata(UnitDigit+0x30);
  2447  0DE5  0849               	movf	disp_num@UnitDigit,w
  2448  0DE6  3E30               	addlw	48
  2449  0DE7  120A  158A  22DC  120A  158A  	fcall	_lcddata
  2450                           
  2451                           ;calc.c: 218: lcddata('.');
  2452  0DEC  302E               	movlw	46
  2453  0DED  120A  158A  22DC  120A  158A  	fcall	_lcddata
  2454                           
  2455                           ;calc.c: 219: decimal=(char)(j%10);
  2456  0DF2  300A               	movlw	10
  2457  0DF3  00F0               	movwf	___awmod@divisor
  2458  0DF4  3000               	movlw	0
  2459  0DF5  00F1               	movwf	___awmod@divisor+1
  2460  0DF6  1283               	bcf	3,5	;RP0=0, select bank0
  2461  0DF7  1303               	bcf	3,6	;RP1=0, select bank0
  2462  0DF8  0848               	movf	disp_num@j+1,w
  2463  0DF9  00F3               	movwf	___awmod@dividend+1
  2464  0DFA  0847               	movf	disp_num@j,w
  2465  0DFB  00F2               	movwf	___awmod@dividend
  2466  0DFC  120A  158A  2328  120A  158A  	fcall	___awmod
  2467  0E01  0870               	movf	?___awmod,w
  2468  0E02  1283               	bcf	3,5	;RP0=0, select bank0
  2469  0E03  1303               	bcf	3,6	;RP1=0, select bank0
  2470  0E04  00C4               	movwf	??_disp_num
  2471  0E05  0844               	movf	??_disp_num,w
  2472  0E06  00CA               	movwf	disp_num@decimal
  2473                           
  2474                           ;calc.c: 220: lcddata(decimal+0x30);
  2475  0E07  084A               	movf	disp_num@decimal,w
  2476  0E08  3E30               	addlw	48
  2477  0E09  120A  158A  22DC  120A  158A  	fcall	_lcddata
  2478  0E0E                     l2161:	
  2479                           
  2480                           ;calc.c: 221: _delay((unsigned long)((3000)*(20e6/4000.0)));
  2481  0E0E  304D               	movlw	77
  2482  0E0F  1283               	bcf	3,5	;RP0=0, select bank0
  2483  0E10  1303               	bcf	3,6	;RP1=0, select bank0
  2484  0E11  00C6               	movwf	??_disp_num+2
  2485  0E12  3019               	movlw	25
  2486  0E13  00C5               	movwf	??_disp_num+1
  2487  0E14  304F               	movlw	79
  2488  0E15  00C4               	movwf	??_disp_num
  2489  0E16                     u2987:	
  2490  0E16  0BC4               	decfsz	??_disp_num,f
  2491  0E17  2E16               	goto	u2987
  2492  0E18  0BC5               	decfsz	??_disp_num+1,f
  2493  0E19  2E16               	goto	u2987
  2494  0E1A  0BC6               	decfsz	??_disp_num+2,f
  2495  0E1B  2E16               	goto	u2987
  2496  0E1C                     l2163:	
  2497                           
  2498                           ;calc.c: 222: lcdcmd(0x01);
  2499  0E1C  3001               	movlw	1
  2500  0E1D  120A  158A  22B7  120A  158A  	fcall	_lcdcmd
  2501  0E22                     l127:	
  2502  0E22  0008               	return
  2503  0E23                     __end_of_disp_num:	
  2504                           
  2505                           	psect	text5
  2506  0ADC                     __ptext5:	
  2507 ;; *************** function _lcddata *****************
  2508 ;; Defined at:
  2509 ;;		line 130 in file "calc.c"
  2510 ;; Parameters:    Size  Location     Type
  2511 ;;  value           1    wreg     unsigned char 
  2512 ;; Auto vars:     Size  Location     Type
  2513 ;;  value           1    3[COMMON] unsigned char 
  2514 ;; Return value:  Size  Location     Type
  2515 ;;                  1    wreg      void 
  2516 ;; Registers used:
  2517 ;;		wreg
  2518 ;; Tracked objects:
  2519 ;;		On entry : 0/0
  2520 ;;		On exit  : 0/0
  2521 ;;		Unchanged: 0/0
  2522 ;; Data sizes:     COMMON   BANK0   BANK1   BANK3   BANK2
  2523 ;;      Params:         0       0       0       0       0
  2524 ;;      Locals:         1       0       0       0       0
  2525 ;;      Temps:          3       0       0       0       0
  2526 ;;      Totals:         4       0       0       0       0
  2527 ;;Total ram usage:        4 bytes
  2528 ;; Hardware stack levels used:    1
  2529 ;; This function calls:
  2530 ;;		Nothing
  2531 ;; This function is called by:
  2532 ;;		_main
  2533 ;;		_scan_key
  2534 ;;		_disp_num
  2535 ;; This function uses a non-reentrant model
  2536 ;;
  2537                           
  2538                           
  2539                           ;psect for function _lcddata
  2540  0ADC                     _lcddata:	
  2541                           
  2542                           ;incstack = 0
  2543                           ; Regs used in _lcddata: [wreg]
  2544                           ;lcddata@value stored from wreg
  2545  0ADC  00F3               	movwf	lcddata@value
  2546  0ADD                     l1635:	
  2547                           
  2548                           ;calc.c: 130: void lcddata(unsigned char value);calc.c: 131:   {;calc.c: 132:     PORTB 
      +                          = value;
  2549  0ADD  0873               	movf	lcddata@value,w
  2550  0ADE  1283               	bcf	3,5	;RP0=0, select bank0
  2551  0ADF  1303               	bcf	3,6	;RP1=0, select bank0
  2552  0AE0  0086               	movwf	6	;volatile
  2553  0AE1                     l1637:	
  2554                           
  2555                           ;calc.c: 133:     RD6 = 1;
  2556  0AE1  1708               	bsf	8,6	;volatile
  2557  0AE2                     l1639:	
  2558                           
  2559                           ;calc.c: 134:     RD7 = 1;
  2560  0AE2  1788               	bsf	8,7	;volatile
  2561                           
  2562                           ;calc.c: 135:     _delay((unsigned long)((100)*(20e6/4000.0)));
  2563  0AE3  3003               	movlw	3
  2564  0AE4  00F2               	movwf	??_lcddata+2
  2565  0AE5  308A               	movlw	138
  2566  0AE6  00F1               	movwf	??_lcddata+1
  2567  0AE7  3055               	movlw	85
  2568  0AE8  00F0               	movwf	??_lcddata
  2569  0AE9                     u2997:	
  2570  0AE9  0BF0               	decfsz	??_lcddata,f
  2571  0AEA  2AE9               	goto	u2997
  2572  0AEB  0BF1               	decfsz	??_lcddata+1,f
  2573  0AEC  2AE9               	goto	u2997
  2574  0AED  0BF2               	decfsz	??_lcddata+2,f
  2575  0AEE  2AE9               	goto	u2997
  2576  0AEF  2AF0               	nop2
  2577  0AF0                     l1641:	
  2578                           
  2579                           ;calc.c: 136:     RD7 = 0;
  2580  0AF0  1283               	bcf	3,5	;RP0=0, select bank0
  2581  0AF1  1303               	bcf	3,6	;RP1=0, select bank0
  2582  0AF2  1388               	bcf	8,7	;volatile
  2583                           
  2584                           ;calc.c: 137:     _delay((unsigned long)((100)*(20e6/4000.0)));
  2585  0AF3  3003               	movlw	3
  2586  0AF4  00F2               	movwf	??_lcddata+2
  2587  0AF5  308A               	movlw	138
  2588  0AF6  00F1               	movwf	??_lcddata+1
  2589  0AF7  3055               	movlw	85
  2590  0AF8  00F0               	movwf	??_lcddata
  2591  0AF9                     u3007:	
  2592  0AF9  0BF0               	decfsz	??_lcddata,f
  2593  0AFA  2AF9               	goto	u3007
  2594  0AFB  0BF1               	decfsz	??_lcddata+1,f
  2595  0AFC  2AF9               	goto	u3007
  2596  0AFD  0BF2               	decfsz	??_lcddata+2,f
  2597  0AFE  2AF9               	goto	u3007
  2598  0AFF  2B00               	nop2
  2599  0B00                     l87:	
  2600  0B00  0008               	return
  2601  0B01                     __end_of_lcddata:	
  2602                           
  2603                           	psect	text6
  2604  0AB7                     __ptext6:	
  2605 ;; *************** function _lcdcmd *****************
  2606 ;; Defined at:
  2607 ;;		line 121 in file "calc.c"
  2608 ;; Parameters:    Size  Location     Type
  2609 ;;  value           1    wreg     unsigned char 
  2610 ;; Auto vars:     Size  Location     Type
  2611 ;;  value           1    3[COMMON] unsigned char 
  2612 ;; Return value:  Size  Location     Type
  2613 ;;                  1    wreg      void 
  2614 ;; Registers used:
  2615 ;;		wreg
  2616 ;; Tracked objects:
  2617 ;;		On entry : 0/0
  2618 ;;		On exit  : 0/0
  2619 ;;		Unchanged: 0/0
  2620 ;; Data sizes:     COMMON   BANK0   BANK1   BANK3   BANK2
  2621 ;;      Params:         0       0       0       0       0
  2622 ;;      Locals:         1       0       0       0       0
  2623 ;;      Temps:          3       0       0       0       0
  2624 ;;      Totals:         4       0       0       0       0
  2625 ;;Total ram usage:        4 bytes
  2626 ;; Hardware stack levels used:    1
  2627 ;; This function calls:
  2628 ;;		Nothing
  2629 ;; This function is called by:
  2630 ;;		_lcdinit
  2631 ;;		_main
  2632 ;;		_disp_num
  2633 ;; This function uses a non-reentrant model
  2634 ;;
  2635                           
  2636                           
  2637                           ;psect for function _lcdcmd
  2638  0AB7                     _lcdcmd:	
  2639                           
  2640                           ;incstack = 0
  2641                           ; Regs used in _lcdcmd: [wreg]
  2642                           ;lcdcmd@value stored from wreg
  2643  0AB7  00F3               	movwf	lcdcmd@value
  2644  0AB8                     l1627:	
  2645                           
  2646                           ;calc.c: 121: void lcdcmd(unsigned char value);calc.c: 122:   {;calc.c: 123:     PORTB =
      +                           value;
  2647  0AB8  0873               	movf	lcdcmd@value,w
  2648  0AB9  1283               	bcf	3,5	;RP0=0, select bank0
  2649  0ABA  1303               	bcf	3,6	;RP1=0, select bank0
  2650  0ABB  0086               	movwf	6	;volatile
  2651  0ABC                     l1629:	
  2652                           
  2653                           ;calc.c: 124:     RD6 = 0;
  2654  0ABC  1308               	bcf	8,6	;volatile
  2655  0ABD                     l1631:	
  2656                           
  2657                           ;calc.c: 125:     RD7 = 1;
  2658  0ABD  1788               	bsf	8,7	;volatile
  2659                           
  2660                           ;calc.c: 126:     _delay((unsigned long)((100)*(20e6/4000.0)));
  2661  0ABE  3003               	movlw	3
  2662  0ABF  00F2               	movwf	??_lcdcmd+2
  2663  0AC0  308A               	movlw	138
  2664  0AC1  00F1               	movwf	??_lcdcmd+1
  2665  0AC2  3055               	movlw	85
  2666  0AC3  00F0               	movwf	??_lcdcmd
  2667  0AC4                     u3017:	
  2668  0AC4  0BF0               	decfsz	??_lcdcmd,f
  2669  0AC5  2AC4               	goto	u3017
  2670  0AC6  0BF1               	decfsz	??_lcdcmd+1,f
  2671  0AC7  2AC4               	goto	u3017
  2672  0AC8  0BF2               	decfsz	??_lcdcmd+2,f
  2673  0AC9  2AC4               	goto	u3017
  2674  0ACA  2ACB               	nop2
  2675  0ACB                     l1633:	
  2676                           
  2677                           ;calc.c: 127:     RD7 = 0;
  2678  0ACB  1283               	bcf	3,5	;RP0=0, select bank0
  2679  0ACC  1303               	bcf	3,6	;RP1=0, select bank0
  2680  0ACD  1388               	bcf	8,7	;volatile
  2681                           
  2682                           ;calc.c: 128:     _delay((unsigned long)((100)*(20e6/4000.0)));
  2683  0ACE  3003               	movlw	3
  2684  0ACF  00F2               	movwf	??_lcdcmd+2
  2685  0AD0  308A               	movlw	138
  2686  0AD1  00F1               	movwf	??_lcdcmd+1
  2687  0AD2  3055               	movlw	85
  2688  0AD3  00F0               	movwf	??_lcdcmd
  2689  0AD4                     u3027:	
  2690  0AD4  0BF0               	decfsz	??_lcdcmd,f
  2691  0AD5  2AD4               	goto	u3027
  2692  0AD6  0BF1               	decfsz	??_lcdcmd+1,f
  2693  0AD7  2AD4               	goto	u3027
  2694  0AD8  0BF2               	decfsz	??_lcdcmd+2,f
  2695  0AD9  2AD4               	goto	u3027
  2696  0ADA  2ADB               	nop2
  2697  0ADB                     l84:	
  2698  0ADB  0008               	return
  2699  0ADC                     __end_of_lcdcmd:	
  2700                           
  2701                           	psect	text7
  2702  002E                     __ptext7:	
  2703 ;; *************** function ___fltol *****************
  2704 ;; Defined at:
  2705 ;;		line 43 in file "C:\Program Files (x86)\Microchip\xc8\v2.10\pic\sources\c90\common\fltol.c"
  2706 ;; Parameters:    Size  Location     Type
  2707 ;;  f1              4   21[BANK0 ] void 
  2708 ;; Auto vars:     Size  Location     Type
  2709 ;;  exp1            1   31[BANK0 ] unsigned char 
  2710 ;;  sign1           1   30[BANK0 ] unsigned char 
  2711 ;; Return value:  Size  Location     Type
  2712 ;;                  4   21[BANK0 ] long 
  2713 ;; Registers used:
  2714 ;;		wreg, status,2, status,0
  2715 ;; Tracked objects:
  2716 ;;		On entry : 0/0
  2717 ;;		On exit  : 0/0
  2718 ;;		Unchanged: 0/0
  2719 ;; Data sizes:     COMMON   BANK0   BANK1   BANK3   BANK2
  2720 ;;      Params:         0       4       0       0       0
  2721 ;;      Locals:         0       2       0       0       0
  2722 ;;      Temps:          0       5       0       0       0
  2723 ;;      Totals:         0      11       0       0       0
  2724 ;;Total ram usage:       11 bytes
  2725 ;; Hardware stack levels used:    1
  2726 ;; This function calls:
  2727 ;;		Nothing
  2728 ;; This function is called by:
  2729 ;;		_disp_num
  2730 ;; This function uses a non-reentrant model
  2731 ;;
  2732                           
  2733                           
  2734                           ;psect for function ___fltol
  2735  002E                     ___fltol:	
  2736  002E                     l1739:	
  2737                           ;incstack = 0
  2738                           ; Regs used in ___fltol: [wreg+status,2+status,0]
  2739                           
  2740  002E  1003               	clrc
  2741  002F  1283               	bcf	3,5	;RP0=0, select bank0
  2742  0030  1303               	bcf	3,6	;RP1=0, select bank0
  2743  0031  0D37               	rlf	___fltol@f1+2,w
  2744  0032  0D38               	rlf	___fltol@f1+3,w
  2745  0033  00B9               	movwf	??___fltol
  2746  0034  0839               	movf	??___fltol,w
  2747  0035  00BF               	movwf	___fltol@exp1
  2748  0036  083F               	movf	___fltol@exp1,w
  2749  0037  1D03               	btfss	3,2
  2750  0038  283A               	goto	u1641
  2751  0039  283B               	goto	u1640
  2752  003A                     u1641:	
  2753  003A  2844               	goto	l1745
  2754  003B                     u1640:	
  2755  003B                     l1741:	
  2756  003B  3000               	movlw	0
  2757  003C  00B8               	movwf	?___fltol+3
  2758  003D  3000               	movlw	0
  2759  003E  00B7               	movwf	?___fltol+2
  2760  003F  3000               	movlw	0
  2761  0040  00B6               	movwf	?___fltol+1
  2762  0041  3000               	movlw	0
  2763  0042  00B5               	movwf	?___fltol
  2764  0043  28A9               	goto	l399
  2765  0044                     l1745:	
  2766  0044  0835               	movf	___fltol@f1,w
  2767  0045  00B9               	movwf	??___fltol
  2768  0046  0836               	movf	___fltol@f1+1,w
  2769  0047  00BA               	movwf	??___fltol+1
  2770  0048  0837               	movf	___fltol@f1+2,w
  2771  0049  00BB               	movwf	??___fltol+2
  2772  004A  0838               	movf	___fltol@f1+3,w
  2773  004B  00BC               	movwf	??___fltol+3
  2774  004C  301F               	movlw	31
  2775  004D                     u1655:	
  2776  004D  1003               	clrc
  2777  004E  0CBC               	rrf	??___fltol+3,f
  2778  004F  0CBB               	rrf	??___fltol+2,f
  2779  0050  0CBA               	rrf	??___fltol+1,f
  2780  0051  0CB9               	rrf	??___fltol,f
  2781  0052                     u1650:	
  2782  0052  3EFF               	addlw	-1
  2783  0053  1D03               	skipz
  2784  0054  284D               	goto	u1655
  2785  0055  0839               	movf	??___fltol,w
  2786  0056  00BD               	movwf	??___fltol+4
  2787  0057  083D               	movf	??___fltol+4,w
  2788  0058  00BE               	movwf	___fltol@sign1
  2789  0059                     l1747:	
  2790  0059  17B7               	bsf	___fltol@f1+2,7
  2791  005A                     l1749:	
  2792  005A  30FF               	movlw	255
  2793  005B  05B5               	andwf	___fltol@f1,f
  2794  005C  30FF               	movlw	255
  2795  005D  05B6               	andwf	___fltol@f1+1,f
  2796  005E  30FF               	movlw	255
  2797  005F  05B7               	andwf	___fltol@f1+2,f
  2798  0060  3000               	movlw	0
  2799  0061  05B8               	andwf	___fltol@f1+3,f
  2800  0062                     l1751:	
  2801  0062  3096               	movlw	150
  2802  0063  02BF               	subwf	___fltol@exp1,f
  2803  0064                     l1753:	
  2804  0064  1FBF               	btfss	___fltol@exp1,7
  2805  0065  2867               	goto	u1661
  2806  0066  2868               	goto	u1660
  2807  0067                     u1661:	
  2808  0067  2882               	goto	l1763
  2809  0068                     u1660:	
  2810  0068                     l1755:	
  2811  0068  083F               	movf	___fltol@exp1,w
  2812  0069  3A80               	xorlw	128
  2813  006A  3E97               	addlw	151
  2814  006B  1803               	skipnc
  2815  006C  286E               	goto	u1671
  2816  006D  286F               	goto	u1670
  2817  006E                     u1671:	
  2818  006E  2870               	goto	l1761
  2819  006F                     u1670:	
  2820  006F  283B               	goto	l1741
  2821  0070                     l1761:	
  2822  0070  3001               	movlw	1
  2823  0071                     u1685:	
  2824  0071  1003               	clrc
  2825  0072  0CB8               	rrf	___fltol@f1+3,f
  2826  0073  0CB7               	rrf	___fltol@f1+2,f
  2827  0074  0CB6               	rrf	___fltol@f1+1,f
  2828  0075  0CB5               	rrf	___fltol@f1,f
  2829  0076  3EFF               	addlw	-1
  2830  0077  1D03               	skipz
  2831  0078  2871               	goto	u1685
  2832  0079  3001               	movlw	1
  2833  007A  00B9               	movwf	??___fltol
  2834  007B  0839               	movf	??___fltol,w
  2835  007C  07BF               	addwf	___fltol@exp1,f
  2836  007D  1D03               	btfss	3,2
  2837  007E  2880               	goto	u1691
  2838  007F  2881               	goto	u1690
  2839  0080                     u1691:	
  2840  0080  2870               	goto	l1761
  2841  0081                     u1690:	
  2842  0081  2899               	goto	l1771
  2843  0082                     l1763:	
  2844  0082  3020               	movlw	32
  2845  0083  023F               	subwf	___fltol@exp1,w
  2846  0084  1C03               	skipc
  2847  0085  2887               	goto	u1701
  2848  0086  2888               	goto	u1700
  2849  0087                     u1701:	
  2850  0087  2894               	goto	l406
  2851  0088                     u1700:	
  2852  0088  283B               	goto	l1741
  2853  0089                     l1769:	
  2854  0089  3001               	movlw	1
  2855  008A  00B9               	movwf	??___fltol
  2856  008B                     u1715:	
  2857  008B  1003               	clrc
  2858  008C  0DB5               	rlf	___fltol@f1,f
  2859  008D  0DB6               	rlf	___fltol@f1+1,f
  2860  008E  0DB7               	rlf	___fltol@f1+2,f
  2861  008F  0DB8               	rlf	___fltol@f1+3,f
  2862  0090  0BB9               	decfsz	??___fltol,f
  2863  0091  288B               	goto	u1715
  2864  0092  3001               	movlw	1
  2865  0093  02BF               	subwf	___fltol@exp1,f
  2866  0094                     l406:	
  2867  0094  083F               	movf	___fltol@exp1,w
  2868  0095  1D03               	btfss	3,2
  2869  0096  2898               	goto	u1721
  2870  0097  2899               	goto	u1720
  2871  0098                     u1721:	
  2872  0098  2889               	goto	l1769
  2873  0099                     u1720:	
  2874  0099                     l1771:	
  2875  0099  083E               	movf	___fltol@sign1,w
  2876  009A  1903               	btfsc	3,2
  2877  009B  289D               	goto	u1731
  2878  009C  289E               	goto	u1730
  2879  009D                     u1731:	
  2880  009D  28A9               	goto	l409
  2881  009E                     u1730:	
  2882  009E                     l1773:	
  2883  009E  09B5               	comf	___fltol@f1,f
  2884  009F  09B6               	comf	___fltol@f1+1,f
  2885  00A0  09B7               	comf	___fltol@f1+2,f
  2886  00A1  09B8               	comf	___fltol@f1+3,f
  2887  00A2  0AB5               	incf	___fltol@f1,f
  2888  00A3  1903               	skipnz
  2889  00A4  0AB6               	incf	___fltol@f1+1,f
  2890  00A5  1903               	skipnz
  2891  00A6  0AB7               	incf	___fltol@f1+2,f
  2892  00A7  1903               	skipnz
  2893  00A8  0AB8               	incf	___fltol@f1+3,f
  2894  00A9                     l409:	
  2895  00A9                     l399:	
  2896  00A9  0008               	return
  2897  00AA                     __end_of___fltol:	
  2898                           
  2899                           	psect	text8
  2900  0480                     __ptext8:	
  2901 ;; *************** function ___flmul *****************
  2902 ;; Defined at:
  2903 ;;		line 8 in file "C:\Program Files (x86)\Microchip\xc8\v2.10\pic\sources\c90\common\sprcmul.c"
  2904 ;; Parameters:    Size  Location     Type
  2905 ;;  b               4    0[BANK0 ] long 
  2906 ;;  a               4    4[BANK0 ] long 
  2907 ;; Auto vars:     Size  Location     Type
  2908 ;;  prod            4   15[BANK0 ] struct .
  2909 ;;  grs             4    9[BANK0 ] unsigned long 
  2910 ;;  temp            2   19[BANK0 ] struct .
  2911 ;;  bexp            1   14[BANK0 ] unsigned char 
  2912 ;;  aexp            1   13[BANK0 ] unsigned char 
  2913 ;;  sign            1    8[BANK0 ] unsigned char 
  2914 ;; Return value:  Size  Location     Type
  2915 ;;                  4    0[BANK0 ] unsigned char 
  2916 ;; Registers used:
  2917 ;;		wreg, status,2, status,0, btemp+1, pclath, cstack
  2918 ;; Tracked objects:
  2919 ;;		On entry : 0/0
  2920 ;;		On exit  : 0/0
  2921 ;;		Unchanged: 0/0
  2922 ;; Data sizes:     COMMON   BANK0   BANK1   BANK3   BANK2
  2923 ;;      Params:         0       8       0       0       0
  2924 ;;      Locals:         0      13       0       0       0
  2925 ;;      Temps:          5       0       0       0       0
  2926 ;;      Totals:         5      21       0       0       0
  2927 ;;Total ram usage:       26 bytes
  2928 ;; Hardware stack levels used:    1
  2929 ;; Hardware stack levels required when called:    1
  2930 ;; This function calls:
  2931 ;;		__Umul8_16
  2932 ;; This function is called by:
  2933 ;;		_disp_num
  2934 ;; This function uses a non-reentrant model
  2935 ;;
  2936                           
  2937                           
  2938                           ;psect for function ___flmul
  2939  0480                     ___flmul:	
  2940  0480                     l1775:	
  2941                           ;incstack = 0
  2942                           ; Regs used in ___flmul: [wreg+status,2+status,0+btemp+1+pclath+cstack]
  2943                           
  2944  0480  1283               	bcf	3,5	;RP0=0, select bank0
  2945  0481  1303               	bcf	3,6	;RP1=0, select bank0
  2946  0482  0823               	movf	___flmul@b+3,w
  2947  0483  3980               	andlw	128
  2948  0484  00F9               	movwf	??___flmul
  2949  0485  0879               	movf	??___flmul,w
  2950  0486  00A8               	movwf	___flmul@sign
  2951  0487                     l1777:	
  2952  0487  0823               	movf	___flmul@b+3,w
  2953  0488  00F9               	movwf	??___flmul
  2954  0489  0779               	addwf	??___flmul,w
  2955  048A  00FA               	movwf	??___flmul+1
  2956  048B  087A               	movf	??___flmul+1,w
  2957  048C  00AE               	movwf	___flmul@bexp
  2958  048D                     l1779:	
  2959  048D  1FA2               	btfss	___flmul@b+2,7
  2960  048E  2C90               	goto	u1741
  2961  048F  2C91               	goto	u1740
  2962  0490                     u1741:	
  2963  0490  2C92               	goto	l1783
  2964  0491                     u1740:	
  2965  0491                     l1781:	
  2966  0491  142E               	bsf	___flmul@bexp,0
  2967  0492                     l1783:	
  2968  0492  082E               	movf	___flmul@bexp,w
  2969  0493  1903               	btfsc	3,2
  2970  0494  2C96               	goto	u1751
  2971  0495  2C97               	goto	u1750
  2972  0496                     u1751:	
  2973  0496  2CA6               	goto	l1791
  2974  0497                     u1750:	
  2975  0497                     l1785:	
  2976  0497  0A2E               	incf	___flmul@bexp,w
  2977  0498  1D03               	btfss	3,2
  2978  0499  2C9B               	goto	u1761
  2979  049A  2C9C               	goto	u1760
  2980  049B                     u1761:	
  2981  049B  2CA4               	goto	l1789
  2982  049C                     u1760:	
  2983  049C                     l1787:	
  2984  049C  3000               	movlw	0
  2985  049D  00A3               	movwf	___flmul@b+3
  2986  049E  3000               	movlw	0
  2987  049F  00A2               	movwf	___flmul@b+2
  2988  04A0  3000               	movlw	0
  2989  04A1  00A1               	movwf	___flmul@b+1
  2990  04A2  3000               	movlw	0
  2991  04A3  00A0               	movwf	___flmul@b
  2992  04A4                     l1789:	
  2993  04A4  17A2               	bsf	___flmul@b+2,7
  2994  04A5  2CAE               	goto	l1793
  2995  04A6                     l1791:	
  2996  04A6  3000               	movlw	0
  2997  04A7  00A3               	movwf	___flmul@b+3
  2998  04A8  3000               	movlw	0
  2999  04A9  00A2               	movwf	___flmul@b+2
  3000  04AA  3000               	movlw	0
  3001  04AB  00A1               	movwf	___flmul@b+1
  3002  04AC  3000               	movlw	0
  3003  04AD  00A0               	movwf	___flmul@b
  3004  04AE                     l1793:	
  3005  04AE  0827               	movf	___flmul@a+3,w
  3006  04AF  3980               	andlw	128
  3007  04B0  00F9               	movwf	??___flmul
  3008  04B1  0879               	movf	??___flmul,w
  3009  04B2  06A8               	xorwf	___flmul@sign,f
  3010  04B3                     l1795:	
  3011  04B3  0827               	movf	___flmul@a+3,w
  3012  04B4  00F9               	movwf	??___flmul
  3013  04B5  0779               	addwf	??___flmul,w
  3014  04B6  00FA               	movwf	??___flmul+1
  3015  04B7  087A               	movf	??___flmul+1,w
  3016  04B8  00AD               	movwf	___flmul@aexp
  3017  04B9                     l1797:	
  3018  04B9  1FA6               	btfss	___flmul@a+2,7
  3019  04BA  2CBC               	goto	u1771
  3020  04BB  2CBD               	goto	u1770
  3021  04BC                     u1771:	
  3022  04BC  2CBE               	goto	l1801
  3023  04BD                     u1770:	
  3024  04BD                     l1799:	
  3025  04BD  142D               	bsf	___flmul@aexp,0
  3026  04BE                     l1801:	
  3027  04BE  082D               	movf	___flmul@aexp,w
  3028  04BF  1903               	btfsc	3,2
  3029  04C0  2CC2               	goto	u1781
  3030  04C1  2CC3               	goto	u1780
  3031  04C2                     u1781:	
  3032  04C2  2CD2               	goto	l1809
  3033  04C3                     u1780:	
  3034  04C3                     l1803:	
  3035  04C3  0A2D               	incf	___flmul@aexp,w
  3036  04C4  1D03               	btfss	3,2
  3037  04C5  2CC7               	goto	u1791
  3038  04C6  2CC8               	goto	u1790
  3039  04C7                     u1791:	
  3040  04C7  2CD0               	goto	l1807
  3041  04C8                     u1790:	
  3042  04C8                     l1805:	
  3043  04C8  3000               	movlw	0
  3044  04C9  00A7               	movwf	___flmul@a+3
  3045  04CA  3000               	movlw	0
  3046  04CB  00A6               	movwf	___flmul@a+2
  3047  04CC  3000               	movlw	0
  3048  04CD  00A5               	movwf	___flmul@a+1
  3049  04CE  3000               	movlw	0
  3050  04CF  00A4               	movwf	___flmul@a
  3051  04D0                     l1807:	
  3052  04D0  17A6               	bsf	___flmul@a+2,7
  3053  04D1  2CDA               	goto	l1811
  3054  04D2                     l1809:	
  3055  04D2  3000               	movlw	0
  3056  04D3  00A7               	movwf	___flmul@a+3
  3057  04D4  3000               	movlw	0
  3058  04D5  00A6               	movwf	___flmul@a+2
  3059  04D6  3000               	movlw	0
  3060  04D7  00A5               	movwf	___flmul@a+1
  3061  04D8  3000               	movlw	0
  3062  04D9  00A4               	movwf	___flmul@a
  3063  04DA                     l1811:	
  3064  04DA  082D               	movf	___flmul@aexp,w
  3065  04DB  1903               	btfsc	3,2
  3066  04DC  2CDE               	goto	u1801
  3067  04DD  2CDF               	goto	u1800
  3068  04DE                     u1801:	
  3069  04DE  2CE4               	goto	l1815
  3070  04DF                     u1800:	
  3071  04DF                     l1813:	
  3072  04DF  082E               	movf	___flmul@bexp,w
  3073  04E0  1D03               	btfss	3,2
  3074  04E1  2CE3               	goto	u1811
  3075  04E2  2CE4               	goto	u1810
  3076  04E3                     u1811:	
  3077  04E3  2CED               	goto	l1819
  3078  04E4                     u1810:	
  3079  04E4                     l1815:	
  3080  04E4  3000               	movlw	0
  3081  04E5  00A3               	movwf	?___flmul+3
  3082  04E6  3000               	movlw	0
  3083  04E7  00A2               	movwf	?___flmul+2
  3084  04E8  3000               	movlw	0
  3085  04E9  00A1               	movwf	?___flmul+1
  3086  04EA  3000               	movlw	0
  3087  04EB  00A0               	movwf	?___flmul
  3088  04EC  2FE0               	goto	l602
  3089  04ED                     l1819:	
  3090  04ED  0820               	movf	___flmul@b,w
  3091  04EE  00F9               	movwf	??___flmul
  3092  04EF  0879               	movf	??___flmul,w
  3093  04F0  00F0               	movwf	__Umul8_16@multiplicand
  3094  04F1  0826               	movf	___flmul@a+2,w
  3095  04F2  120A  158A  2301  120A  118A  	fcall	__Umul8_16
  3096  04F7  0871               	movf	?__Umul8_16+1,w
  3097  04F8  1283               	bcf	3,5	;RP0=0, select bank0
  3098  04F9  1303               	bcf	3,6	;RP1=0, select bank0
  3099  04FA  00B4               	movwf	___flmul@temp+1
  3100  04FB  0870               	movf	?__Umul8_16,w
  3101  04FC  00B3               	movwf	___flmul@temp
  3102  04FD                     l1821:	
  3103  04FD  0833               	movf	___flmul@temp,w
  3104  04FE  00F9               	movwf	??___flmul
  3105  04FF  01FA               	clrf	??___flmul+1
  3106  0500  01FB               	clrf	??___flmul+2
  3107  0501  01FC               	clrf	??___flmul+3
  3108  0502  087C               	movf	??___flmul+3,w
  3109  0503  00AC               	movwf	___flmul@grs+3
  3110  0504  087B               	movf	??___flmul+2,w
  3111  0505  00AB               	movwf	___flmul@grs+2
  3112  0506  087A               	movf	??___flmul+1,w
  3113  0507  00AA               	movwf	___flmul@grs+1
  3114  0508  0879               	movf	??___flmul,w
  3115  0509  00A9               	movwf	___flmul@grs
  3116  050A                     l1823:	
  3117  050A  0834               	movf	___flmul@temp+1,w
  3118  050B  00F9               	movwf	??___flmul
  3119  050C  01FA               	clrf	??___flmul+1
  3120  050D  01FB               	clrf	??___flmul+2
  3121  050E  01FC               	clrf	??___flmul+3
  3122  050F  087C               	movf	??___flmul+3,w
  3123  0510  00B2               	movwf	___flmul@prod+3
  3124  0511  087B               	movf	??___flmul+2,w
  3125  0512  00B1               	movwf	___flmul@prod+2
  3126  0513  087A               	movf	??___flmul+1,w
  3127  0514  00B0               	movwf	___flmul@prod+1
  3128  0515  0879               	movf	??___flmul,w
  3129  0516  00AF               	movwf	___flmul@prod
  3130  0517  0821               	movf	___flmul@b+1,w
  3131  0518  00F9               	movwf	??___flmul
  3132  0519  0879               	movf	??___flmul,w
  3133  051A  00F0               	movwf	__Umul8_16@multiplicand
  3134  051B  0825               	movf	___flmul@a+1,w
  3135  051C  120A  158A  2301  120A  118A  	fcall	__Umul8_16
  3136  0521  0871               	movf	?__Umul8_16+1,w
  3137  0522  1283               	bcf	3,5	;RP0=0, select bank0
  3138  0523  1303               	bcf	3,6	;RP1=0, select bank0
  3139  0524  00B4               	movwf	___flmul@temp+1
  3140  0525  0870               	movf	?__Umul8_16,w
  3141  0526  00B3               	movwf	___flmul@temp
  3142  0527                     l1825:	
  3143  0527  0833               	movf	___flmul@temp,w
  3144  0528  00F9               	movwf	??___flmul
  3145  0529  01FA               	clrf	??___flmul+1
  3146  052A  01FB               	clrf	??___flmul+2
  3147  052B  01FC               	clrf	??___flmul+3
  3148  052C  0879               	movf	??___flmul,w
  3149  052D  07A9               	addwf	___flmul@grs,f
  3150  052E  087A               	movf	??___flmul+1,w
  3151  052F  1103               	clrz
  3152  0530  1803               	skipnc
  3153  0531  3E01               	addlw	1
  3154  0532  1903               	skipnz
  3155  0533  2D35               	goto	u1821
  3156  0534  07AA               	addwf	___flmul@grs+1,f
  3157  0535                     u1821:	
  3158  0535  087B               	movf	??___flmul+2,w
  3159  0536  1103               	clrz
  3160  0537  1803               	skipnc
  3161  0538  3E01               	addlw	1
  3162  0539  1903               	skipnz
  3163  053A  2D3C               	goto	u1822
  3164  053B  07AB               	addwf	___flmul@grs+2,f
  3165  053C                     u1822:	
  3166  053C  087C               	movf	??___flmul+3,w
  3167  053D  1103               	clrz
  3168  053E  1803               	skipnc
  3169  053F  3E01               	addlw	1
  3170  0540  1903               	skipnz
  3171  0541  2D43               	goto	u1823
  3172  0542  07AC               	addwf	___flmul@grs+3,f
  3173  0543                     u1823:	
  3174  0543                     l1827:	
  3175  0543  0834               	movf	___flmul@temp+1,w
  3176  0544  00F9               	movwf	??___flmul
  3177  0545  01FA               	clrf	??___flmul+1
  3178  0546  01FB               	clrf	??___flmul+2
  3179  0547  01FC               	clrf	??___flmul+3
  3180  0548  0879               	movf	??___flmul,w
  3181  0549  07AF               	addwf	___flmul@prod,f
  3182  054A  087A               	movf	??___flmul+1,w
  3183  054B  1103               	clrz
  3184  054C  1803               	skipnc
  3185  054D  3E01               	addlw	1
  3186  054E  1903               	skipnz
  3187  054F  2D51               	goto	u1831
  3188  0550  07B0               	addwf	___flmul@prod+1,f
  3189  0551                     u1831:	
  3190  0551  087B               	movf	??___flmul+2,w
  3191  0552  1103               	clrz
  3192  0553  1803               	skipnc
  3193  0554  3E01               	addlw	1
  3194  0555  1903               	skipnz
  3195  0556  2D58               	goto	u1832
  3196  0557  07B1               	addwf	___flmul@prod+2,f
  3197  0558                     u1832:	
  3198  0558  087C               	movf	??___flmul+3,w
  3199  0559  1103               	clrz
  3200  055A  1803               	skipnc
  3201  055B  3E01               	addlw	1
  3202  055C  1903               	skipnz
  3203  055D  2D5F               	goto	u1833
  3204  055E  07B2               	addwf	___flmul@prod+3,f
  3205  055F                     u1833:	
  3206  055F  0822               	movf	___flmul@b+2,w
  3207  0560  00F9               	movwf	??___flmul
  3208  0561  0879               	movf	??___flmul,w
  3209  0562  00F0               	movwf	__Umul8_16@multiplicand
  3210  0563  0824               	movf	___flmul@a,w
  3211  0564  120A  158A  2301  120A  118A  	fcall	__Umul8_16
  3212  0569  0871               	movf	?__Umul8_16+1,w
  3213  056A  1283               	bcf	3,5	;RP0=0, select bank0
  3214  056B  1303               	bcf	3,6	;RP1=0, select bank0
  3215  056C  00B4               	movwf	___flmul@temp+1
  3216  056D  0870               	movf	?__Umul8_16,w
  3217  056E  00B3               	movwf	___flmul@temp
  3218  056F                     l1829:	
  3219  056F  0833               	movf	___flmul@temp,w
  3220  0570  00F9               	movwf	??___flmul
  3221  0571  01FA               	clrf	??___flmul+1
  3222  0572  01FB               	clrf	??___flmul+2
  3223  0573  01FC               	clrf	??___flmul+3
  3224  0574  0879               	movf	??___flmul,w
  3225  0575  07A9               	addwf	___flmul@grs,f
  3226  0576  087A               	movf	??___flmul+1,w
  3227  0577  1103               	clrz
  3228  0578  1803               	skipnc
  3229  0579  3E01               	addlw	1
  3230  057A  1903               	skipnz
  3231  057B  2D7D               	goto	u1841
  3232  057C  07AA               	addwf	___flmul@grs+1,f
  3233  057D                     u1841:	
  3234  057D  087B               	movf	??___flmul+2,w
  3235  057E  1103               	clrz
  3236  057F  1803               	skipnc
  3237  0580  3E01               	addlw	1
  3238  0581  1903               	skipnz
  3239  0582  2D84               	goto	u1842
  3240  0583  07AB               	addwf	___flmul@grs+2,f
  3241  0584                     u1842:	
  3242  0584  087C               	movf	??___flmul+3,w
  3243  0585  1103               	clrz
  3244  0586  1803               	skipnc
  3245  0587  3E01               	addlw	1
  3246  0588  1903               	skipnz
  3247  0589  2D8B               	goto	u1843
  3248  058A  07AC               	addwf	___flmul@grs+3,f
  3249  058B                     u1843:	
  3250  058B                     l1831:	
  3251  058B  0834               	movf	___flmul@temp+1,w
  3252  058C  00F9               	movwf	??___flmul
  3253  058D  01FA               	clrf	??___flmul+1
  3254  058E  01FB               	clrf	??___flmul+2
  3255  058F  01FC               	clrf	??___flmul+3
  3256  0590  0879               	movf	??___flmul,w
  3257  0591  07AF               	addwf	___flmul@prod,f
  3258  0592  087A               	movf	??___flmul+1,w
  3259  0593  1103               	clrz
  3260  0594  1803               	skipnc
  3261  0595  3E01               	addlw	1
  3262  0596  1903               	skipnz
  3263  0597  2D99               	goto	u1851
  3264  0598  07B0               	addwf	___flmul@prod+1,f
  3265  0599                     u1851:	
  3266  0599  087B               	movf	??___flmul+2,w
  3267  059A  1103               	clrz
  3268  059B  1803               	skipnc
  3269  059C  3E01               	addlw	1
  3270  059D  1903               	skipnz
  3271  059E  2DA0               	goto	u1852
  3272  059F  07B1               	addwf	___flmul@prod+2,f
  3273  05A0                     u1852:	
  3274  05A0  087C               	movf	??___flmul+3,w
  3275  05A1  1103               	clrz
  3276  05A2  1803               	skipnc
  3277  05A3  3E01               	addlw	1
  3278  05A4  1903               	skipnz
  3279  05A5  2DA7               	goto	u1853
  3280  05A6  07B2               	addwf	___flmul@prod+3,f
  3281  05A7                     u1853:	
  3282  05A7                     l1833:	
  3283  05A7  3008               	movlw	8
  3284  05A8  00F9               	movwf	??___flmul
  3285  05A9                     u1865:	
  3286  05A9  1003               	clrc
  3287  05AA  0DA9               	rlf	___flmul@grs,f
  3288  05AB  0DAA               	rlf	___flmul@grs+1,f
  3289  05AC  0DAB               	rlf	___flmul@grs+2,f
  3290  05AD  0DAC               	rlf	___flmul@grs+3,f
  3291  05AE  0BF9               	decfsz	??___flmul,f
  3292  05AF  2DA9               	goto	u1865
  3293  05B0                     l1835:	
  3294  05B0  0821               	movf	___flmul@b+1,w
  3295  05B1  00F9               	movwf	??___flmul
  3296  05B2  0879               	movf	??___flmul,w
  3297  05B3  00F0               	movwf	__Umul8_16@multiplicand
  3298  05B4  0824               	movf	___flmul@a,w
  3299  05B5  120A  158A  2301  120A  118A  	fcall	__Umul8_16
  3300  05BA  0871               	movf	?__Umul8_16+1,w
  3301  05BB  1283               	bcf	3,5	;RP0=0, select bank0
  3302  05BC  1303               	bcf	3,6	;RP1=0, select bank0
  3303  05BD  00B4               	movwf	___flmul@temp+1
  3304  05BE  0870               	movf	?__Umul8_16,w
  3305  05BF  00B3               	movwf	___flmul@temp
  3306  05C0                     l1837:	
  3307  05C0  0833               	movf	___flmul@temp,w
  3308  05C1  00F9               	movwf	??___flmul
  3309  05C2  0834               	movf	___flmul@temp+1,w
  3310  05C3  00FA               	movwf	??___flmul+1
  3311  05C4  01FB               	clrf	??___flmul+2
  3312  05C5  01FC               	clrf	??___flmul+3
  3313  05C6  0879               	movf	??___flmul,w
  3314  05C7  07A9               	addwf	___flmul@grs,f
  3315  05C8  087A               	movf	??___flmul+1,w
  3316  05C9  1103               	clrz
  3317  05CA  1803               	skipnc
  3318  05CB  3E01               	addlw	1
  3319  05CC  1903               	skipnz
  3320  05CD  2DCF               	goto	u1871
  3321  05CE  07AA               	addwf	___flmul@grs+1,f
  3322  05CF                     u1871:	
  3323  05CF  087B               	movf	??___flmul+2,w
  3324  05D0  1103               	clrz
  3325  05D1  1803               	skipnc
  3326  05D2  3E01               	addlw	1
  3327  05D3  1903               	skipnz
  3328  05D4  2DD6               	goto	u1872
  3329  05D5  07AB               	addwf	___flmul@grs+2,f
  3330  05D6                     u1872:	
  3331  05D6  087C               	movf	??___flmul+3,w
  3332  05D7  1103               	clrz
  3333  05D8  1803               	skipnc
  3334  05D9  3E01               	addlw	1
  3335  05DA  1903               	skipnz
  3336  05DB  2DDD               	goto	u1873
  3337  05DC  07AC               	addwf	___flmul@grs+3,f
  3338  05DD                     u1873:	
  3339  05DD                     l1839:	
  3340  05DD  0820               	movf	___flmul@b,w
  3341  05DE  00F9               	movwf	??___flmul
  3342  05DF  0879               	movf	??___flmul,w
  3343  05E0  00F0               	movwf	__Umul8_16@multiplicand
  3344  05E1  0825               	movf	___flmul@a+1,w
  3345  05E2  120A  158A  2301  120A  118A  	fcall	__Umul8_16
  3346  05E7  0871               	movf	?__Umul8_16+1,w
  3347  05E8  1283               	bcf	3,5	;RP0=0, select bank0
  3348  05E9  1303               	bcf	3,6	;RP1=0, select bank0
  3349  05EA  00B4               	movwf	___flmul@temp+1
  3350  05EB  0870               	movf	?__Umul8_16,w
  3351  05EC  00B3               	movwf	___flmul@temp
  3352  05ED                     l1841:	
  3353  05ED  0833               	movf	___flmul@temp,w
  3354  05EE  00F9               	movwf	??___flmul
  3355  05EF  0834               	movf	___flmul@temp+1,w
  3356  05F0  00FA               	movwf	??___flmul+1
  3357  05F1  01FB               	clrf	??___flmul+2
  3358  05F2  01FC               	clrf	??___flmul+3
  3359  05F3  0879               	movf	??___flmul,w
  3360  05F4  07A9               	addwf	___flmul@grs,f
  3361  05F5  087A               	movf	??___flmul+1,w
  3362  05F6  1103               	clrz
  3363  05F7  1803               	skipnc
  3364  05F8  3E01               	addlw	1
  3365  05F9  1903               	skipnz
  3366  05FA  2DFC               	goto	u1881
  3367  05FB  07AA               	addwf	___flmul@grs+1,f
  3368  05FC                     u1881:	
  3369  05FC  087B               	movf	??___flmul+2,w
  3370  05FD  1103               	clrz
  3371  05FE  1803               	skipnc
  3372  05FF  3E01               	addlw	1
  3373  0600  1903               	skipnz
  3374  0601  2E03               	goto	u1882
  3375  0602  07AB               	addwf	___flmul@grs+2,f
  3376  0603                     u1882:	
  3377  0603  087C               	movf	??___flmul+3,w
  3378  0604  1103               	clrz
  3379  0605  1803               	skipnc
  3380  0606  3E01               	addlw	1
  3381  0607  1903               	skipnz
  3382  0608  2E0A               	goto	u1883
  3383  0609  07AC               	addwf	___flmul@grs+3,f
  3384  060A                     u1883:	
  3385  060A                     l1843:	
  3386  060A  3008               	movlw	8
  3387  060B  00F9               	movwf	??___flmul
  3388  060C                     u1895:	
  3389  060C  1003               	clrc
  3390  060D  0DA9               	rlf	___flmul@grs,f
  3391  060E  0DAA               	rlf	___flmul@grs+1,f
  3392  060F  0DAB               	rlf	___flmul@grs+2,f
  3393  0610  0DAC               	rlf	___flmul@grs+3,f
  3394  0611  0BF9               	decfsz	??___flmul,f
  3395  0612  2E0C               	goto	u1895
  3396  0613  0820               	movf	___flmul@b,w
  3397  0614  00F9               	movwf	??___flmul
  3398  0615  0879               	movf	??___flmul,w
  3399  0616  00F0               	movwf	__Umul8_16@multiplicand
  3400  0617  0824               	movf	___flmul@a,w
  3401  0618  120A  158A  2301  120A  118A  	fcall	__Umul8_16
  3402  061D  0871               	movf	?__Umul8_16+1,w
  3403  061E  1283               	bcf	3,5	;RP0=0, select bank0
  3404  061F  1303               	bcf	3,6	;RP1=0, select bank0
  3405  0620  00B4               	movwf	___flmul@temp+1
  3406  0621  0870               	movf	?__Umul8_16,w
  3407  0622  00B3               	movwf	___flmul@temp
  3408  0623                     l1845:	
  3409  0623  0833               	movf	___flmul@temp,w
  3410  0624  00F9               	movwf	??___flmul
  3411  0625  0834               	movf	___flmul@temp+1,w
  3412  0626  00FA               	movwf	??___flmul+1
  3413  0627  01FB               	clrf	??___flmul+2
  3414  0628  01FC               	clrf	??___flmul+3
  3415  0629  0879               	movf	??___flmul,w
  3416  062A  07A9               	addwf	___flmul@grs,f
  3417  062B  087A               	movf	??___flmul+1,w
  3418  062C  1103               	clrz
  3419  062D  1803               	skipnc
  3420  062E  3E01               	addlw	1
  3421  062F  1903               	skipnz
  3422  0630  2E32               	goto	u1901
  3423  0631  07AA               	addwf	___flmul@grs+1,f
  3424  0632                     u1901:	
  3425  0632  087B               	movf	??___flmul+2,w
  3426  0633  1103               	clrz
  3427  0634  1803               	skipnc
  3428  0635  3E01               	addlw	1
  3429  0636  1903               	skipnz
  3430  0637  2E39               	goto	u1902
  3431  0638  07AB               	addwf	___flmul@grs+2,f
  3432  0639                     u1902:	
  3433  0639  087C               	movf	??___flmul+3,w
  3434  063A  1103               	clrz
  3435  063B  1803               	skipnc
  3436  063C  3E01               	addlw	1
  3437  063D  1903               	skipnz
  3438  063E  2E40               	goto	u1903
  3439  063F  07AC               	addwf	___flmul@grs+3,f
  3440  0640                     u1903:	
  3441  0640                     l1847:	
  3442  0640  0821               	movf	___flmul@b+1,w
  3443  0641  00F9               	movwf	??___flmul
  3444  0642  0879               	movf	??___flmul,w
  3445  0643  00F0               	movwf	__Umul8_16@multiplicand
  3446  0644  0826               	movf	___flmul@a+2,w
  3447  0645  120A  158A  2301  120A  118A  	fcall	__Umul8_16
  3448  064A  0871               	movf	?__Umul8_16+1,w
  3449  064B  1283               	bcf	3,5	;RP0=0, select bank0
  3450  064C  1303               	bcf	3,6	;RP1=0, select bank0
  3451  064D  00B4               	movwf	___flmul@temp+1
  3452  064E  0870               	movf	?__Umul8_16,w
  3453  064F  00B3               	movwf	___flmul@temp
  3454  0650  0833               	movf	___flmul@temp,w
  3455  0651  00F9               	movwf	??___flmul
  3456  0652  0834               	movf	___flmul@temp+1,w
  3457  0653  00FA               	movwf	??___flmul+1
  3458  0654  01FB               	clrf	??___flmul+2
  3459  0655  01FC               	clrf	??___flmul+3
  3460  0656  0879               	movf	??___flmul,w
  3461  0657  07AF               	addwf	___flmul@prod,f
  3462  0658  087A               	movf	??___flmul+1,w
  3463  0659  1103               	clrz
  3464  065A  1803               	skipnc
  3465  065B  3E01               	addlw	1
  3466  065C  1903               	skipnz
  3467  065D  2E5F               	goto	u1911
  3468  065E  07B0               	addwf	___flmul@prod+1,f
  3469  065F                     u1911:	
  3470  065F  087B               	movf	??___flmul+2,w
  3471  0660  1103               	clrz
  3472  0661  1803               	skipnc
  3473  0662  3E01               	addlw	1
  3474  0663  1903               	skipnz
  3475  0664  2E66               	goto	u1912
  3476  0665  07B1               	addwf	___flmul@prod+2,f
  3477  0666                     u1912:	
  3478  0666  087C               	movf	??___flmul+3,w
  3479  0667  1103               	clrz
  3480  0668  1803               	skipnc
  3481  0669  3E01               	addlw	1
  3482  066A  1903               	skipnz
  3483  066B  2E6D               	goto	u1913
  3484  066C  07B2               	addwf	___flmul@prod+3,f
  3485  066D                     u1913:	
  3486  066D                     l1849:	
  3487  066D  0822               	movf	___flmul@b+2,w
  3488  066E  00F9               	movwf	??___flmul
  3489  066F  0879               	movf	??___flmul,w
  3490  0670  00F0               	movwf	__Umul8_16@multiplicand
  3491  0671  0825               	movf	___flmul@a+1,w
  3492  0672  120A  158A  2301  120A  118A  	fcall	__Umul8_16
  3493  0677  0871               	movf	?__Umul8_16+1,w
  3494  0678  1283               	bcf	3,5	;RP0=0, select bank0
  3495  0679  1303               	bcf	3,6	;RP1=0, select bank0
  3496  067A  00B4               	movwf	___flmul@temp+1
  3497  067B  0870               	movf	?__Umul8_16,w
  3498  067C  00B3               	movwf	___flmul@temp
  3499  067D                     l1851:	
  3500  067D  0833               	movf	___flmul@temp,w
  3501  067E  00F9               	movwf	??___flmul
  3502  067F  0834               	movf	___flmul@temp+1,w
  3503  0680  00FA               	movwf	??___flmul+1
  3504  0681  01FB               	clrf	??___flmul+2
  3505  0682  01FC               	clrf	??___flmul+3
  3506  0683  0879               	movf	??___flmul,w
  3507  0684  07AF               	addwf	___flmul@prod,f
  3508  0685  087A               	movf	??___flmul+1,w
  3509  0686  1103               	clrz
  3510  0687  1803               	skipnc
  3511  0688  3E01               	addlw	1
  3512  0689  1903               	skipnz
  3513  068A  2E8C               	goto	u1921
  3514  068B  07B0               	addwf	___flmul@prod+1,f
  3515  068C                     u1921:	
  3516  068C  087B               	movf	??___flmul+2,w
  3517  068D  1103               	clrz
  3518  068E  1803               	skipnc
  3519  068F  3E01               	addlw	1
  3520  0690  1903               	skipnz
  3521  0691  2E93               	goto	u1922
  3522  0692  07B1               	addwf	___flmul@prod+2,f
  3523  0693                     u1922:	
  3524  0693  087C               	movf	??___flmul+3,w
  3525  0694  1103               	clrz
  3526  0695  1803               	skipnc
  3527  0696  3E01               	addlw	1
  3528  0697  1903               	skipnz
  3529  0698  2E9A               	goto	u1923
  3530  0699  07B2               	addwf	___flmul@prod+3,f
  3531  069A                     u1923:	
  3532  069A  0822               	movf	___flmul@b+2,w
  3533  069B  00F9               	movwf	??___flmul
  3534  069C  0879               	movf	??___flmul,w
  3535  069D  00F0               	movwf	__Umul8_16@multiplicand
  3536  069E  0826               	movf	___flmul@a+2,w
  3537  069F  120A  158A  2301  120A  118A  	fcall	__Umul8_16
  3538  06A4  0871               	movf	?__Umul8_16+1,w
  3539  06A5  1283               	bcf	3,5	;RP0=0, select bank0
  3540  06A6  1303               	bcf	3,6	;RP1=0, select bank0
  3541  06A7  00B4               	movwf	___flmul@temp+1
  3542  06A8  0870               	movf	?__Umul8_16,w
  3543  06A9  00B3               	movwf	___flmul@temp
  3544  06AA                     l1853:	
  3545  06AA  0833               	movf	___flmul@temp,w
  3546  06AB  00F9               	movwf	??___flmul
  3547  06AC  0834               	movf	___flmul@temp+1,w
  3548  06AD  00FA               	movwf	??___flmul+1
  3549  06AE  01FB               	clrf	??___flmul+2
  3550  06AF  01FC               	clrf	??___flmul+3
  3551  06B0  3008               	movlw	8
  3552  06B1                     u1935:	
  3553  06B1  1003               	clrc
  3554  06B2  0DF9               	rlf	??___flmul,f
  3555  06B3  0DFA               	rlf	??___flmul+1,f
  3556  06B4  0DFB               	rlf	??___flmul+2,f
  3557  06B5  0DFC               	rlf	??___flmul+3,f
  3558  06B6                     u1930:	
  3559  06B6  3EFF               	addlw	-1
  3560  06B7  1D03               	skipz
  3561  06B8  2EB1               	goto	u1935
  3562  06B9  0879               	movf	??___flmul,w
  3563  06BA  07AF               	addwf	___flmul@prod,f
  3564  06BB  087A               	movf	??___flmul+1,w
  3565  06BC  1103               	clrz
  3566  06BD  1803               	skipnc
  3567  06BE  3E01               	addlw	1
  3568  06BF  1903               	skipnz
  3569  06C0  2EC2               	goto	u1941
  3570  06C1  07B0               	addwf	___flmul@prod+1,f
  3571  06C2                     u1941:	
  3572  06C2  087B               	movf	??___flmul+2,w
  3573  06C3  1103               	clrz
  3574  06C4  1803               	skipnc
  3575  06C5  3E01               	addlw	1
  3576  06C6  1903               	skipnz
  3577  06C7  2EC9               	goto	u1942
  3578  06C8  07B1               	addwf	___flmul@prod+2,f
  3579  06C9                     u1942:	
  3580  06C9  087C               	movf	??___flmul+3,w
  3581  06CA  1103               	clrz
  3582  06CB  1803               	skipnc
  3583  06CC  3E01               	addlw	1
  3584  06CD  1903               	skipnz
  3585  06CE  2ED0               	goto	u1943
  3586  06CF  07B2               	addwf	___flmul@prod+3,f
  3587  06D0                     u1943:	
  3588  06D0                     l1855:	
  3589  06D0  0829               	movf	___flmul@grs,w
  3590  06D1  00F9               	movwf	??___flmul
  3591  06D2  082A               	movf	___flmul@grs+1,w
  3592  06D3  00FA               	movwf	??___flmul+1
  3593  06D4  082B               	movf	___flmul@grs+2,w
  3594  06D5  00FB               	movwf	??___flmul+2
  3595  06D6  082C               	movf	___flmul@grs+3,w
  3596  06D7  00FC               	movwf	??___flmul+3
  3597  06D8  3018               	movlw	24
  3598  06D9                     u1955:	
  3599  06D9  1003               	clrc
  3600  06DA  0CFC               	rrf	??___flmul+3,f
  3601  06DB  0CFB               	rrf	??___flmul+2,f
  3602  06DC  0CFA               	rrf	??___flmul+1,f
  3603  06DD  0CF9               	rrf	??___flmul,f
  3604  06DE                     u1950:	
  3605  06DE  3EFF               	addlw	-1
  3606  06DF  1D03               	skipz
  3607  06E0  2ED9               	goto	u1955
  3608  06E1  0879               	movf	??___flmul,w
  3609  06E2  07AF               	addwf	___flmul@prod,f
  3610  06E3  087A               	movf	??___flmul+1,w
  3611  06E4  1103               	clrz
  3612  06E5  1803               	skipnc
  3613  06E6  3E01               	addlw	1
  3614  06E7  1903               	skipnz
  3615  06E8  2EEA               	goto	u1961
  3616  06E9  07B0               	addwf	___flmul@prod+1,f
  3617  06EA                     u1961:	
  3618  06EA  087B               	movf	??___flmul+2,w
  3619  06EB  1103               	clrz
  3620  06EC  1803               	skipnc
  3621  06ED  3E01               	addlw	1
  3622  06EE  1903               	skipnz
  3623  06EF  2EF1               	goto	u1962
  3624  06F0  07B1               	addwf	___flmul@prod+2,f
  3625  06F1                     u1962:	
  3626  06F1  087C               	movf	??___flmul+3,w
  3627  06F2  1103               	clrz
  3628  06F3  1803               	skipnc
  3629  06F4  3E01               	addlw	1
  3630  06F5  1903               	skipnz
  3631  06F6  2EF8               	goto	u1963
  3632  06F7  07B2               	addwf	___flmul@prod+3,f
  3633  06F8                     u1963:	
  3634  06F8                     l1857:	
  3635  06F8  3008               	movlw	8
  3636  06F9  00F9               	movwf	??___flmul
  3637  06FA                     u1975:	
  3638  06FA  1003               	clrc
  3639  06FB  0DA9               	rlf	___flmul@grs,f
  3640  06FC  0DAA               	rlf	___flmul@grs+1,f
  3641  06FD  0DAB               	rlf	___flmul@grs+2,f
  3642  06FE  0DAC               	rlf	___flmul@grs+3,f
  3643  06FF  0BF9               	decfsz	??___flmul,f
  3644  0700  2EFA               	goto	u1975
  3645  0701                     l1859:	
  3646  0701  082E               	movf	___flmul@bexp,w
  3647  0702  072D               	addwf	___flmul@aexp,w
  3648  0703  00F9               	movwf	??___flmul
  3649  0704  01FA               	clrf	??___flmul+1
  3650  0705  0DFA               	rlf	??___flmul+1,f
  3651  0706  0879               	movf	??___flmul,w
  3652  0707  3E82               	addlw	130
  3653  0708  00B3               	movwf	___flmul@temp
  3654  0709  087A               	movf	??___flmul+1,w
  3655  070A  1803               	skipnc
  3656  070B  3E01               	addlw	1
  3657  070C  3EFF               	addlw	255
  3658  070D  00B4               	movwf	___flmul@temp+1
  3659  070E  2F2C               	goto	l1871
  3660  070F                     l1861:	
  3661  070F  3001               	movlw	1
  3662  0710  00F9               	movwf	??___flmul
  3663  0711                     u1985:	
  3664  0711  1003               	clrc
  3665  0712  0DAF               	rlf	___flmul@prod,f
  3666  0713  0DB0               	rlf	___flmul@prod+1,f
  3667  0714  0DB1               	rlf	___flmul@prod+2,f
  3668  0715  0DB2               	rlf	___flmul@prod+3,f
  3669  0716  0BF9               	decfsz	??___flmul,f
  3670  0717  2F11               	goto	u1985
  3671  0718                     l1863:	
  3672  0718  1FAC               	btfss	___flmul@grs+3,7
  3673  0719  2F1B               	goto	u1991
  3674  071A  2F1C               	goto	u1990
  3675  071B                     u1991:	
  3676  071B  2F1D               	goto	l1867
  3677  071C                     u1990:	
  3678  071C                     l1865:	
  3679  071C  142F               	bsf	___flmul@prod,0
  3680  071D                     l1867:	
  3681  071D  3001               	movlw	1
  3682  071E  00F9               	movwf	??___flmul
  3683  071F                     u2005:	
  3684  071F  1003               	clrc
  3685  0720  0DA9               	rlf	___flmul@grs,f
  3686  0721  0DAA               	rlf	___flmul@grs+1,f
  3687  0722  0DAB               	rlf	___flmul@grs+2,f
  3688  0723  0DAC               	rlf	___flmul@grs+3,f
  3689  0724  0BF9               	decfsz	??___flmul,f
  3690  0725  2F1F               	goto	u2005
  3691  0726                     l1869:	
  3692  0726  30FF               	movlw	255
  3693  0727  07B3               	addwf	___flmul@temp,f
  3694  0728  1803               	skipnc
  3695  0729  0AB4               	incf	___flmul@temp+1,f
  3696  072A  30FF               	movlw	255
  3697  072B  07B4               	addwf	___flmul@temp+1,f
  3698  072C                     l1871:	
  3699  072C  1FB1               	btfss	___flmul@prod+2,7
  3700  072D  2F2F               	goto	u2011
  3701  072E  2F30               	goto	u2010
  3702  072F                     u2011:	
  3703  072F  2F0F               	goto	l1861
  3704  0730                     u2010:	
  3705  0730                     l1873:	
  3706  0730  01AD               	clrf	___flmul@aexp
  3707  0731                     l1875:	
  3708  0731  1FAC               	btfss	___flmul@grs+3,7
  3709  0732  2F34               	goto	u2021
  3710  0733  2F35               	goto	u2020
  3711  0734                     u2021:	
  3712  0734  2F51               	goto	l1883
  3713  0735                     u2020:	
  3714  0735                     l1877:	
  3715  0735  30FF               	movlw	255
  3716  0736  0529               	andwf	___flmul@grs,w
  3717  0737  00F9               	movwf	??___flmul
  3718  0738  30FF               	movlw	255
  3719  0739  052A               	andwf	___flmul@grs+1,w
  3720  073A  00FA               	movwf	??___flmul+1
  3721  073B  30FF               	movlw	255
  3722  073C  052B               	andwf	___flmul@grs+2,w
  3723  073D  00FB               	movwf	??___flmul+2
  3724  073E  307F               	movlw	127
  3725  073F  052C               	andwf	___flmul@grs+3,w
  3726  0740  00FC               	movwf	??___flmul+3
  3727  0741  087C               	movf	??___flmul+3,w
  3728  0742  047B               	iorwf	??___flmul+2,w
  3729  0743  047A               	iorwf	??___flmul+1,w
  3730  0744  0479               	iorwf	??___flmul,w
  3731  0745  1903               	skipnz
  3732  0746  2F48               	goto	u2031
  3733  0747  2F49               	goto	u2030
  3734  0748                     u2031:	
  3735  0748  2F4C               	goto	l608
  3736  0749                     u2030:	
  3737  0749                     l1879:	
  3738  0749  01AD               	clrf	___flmul@aexp
  3739  074A  0AAD               	incf	___flmul@aexp,f
  3740  074B  2F51               	goto	l1883
  3741  074C                     l608:	
  3742  074C  1C2F               	btfss	___flmul@prod,0
  3743  074D  2F4F               	goto	u2041
  3744  074E  2F50               	goto	u2040
  3745  074F                     u2041:	
  3746  074F  2F51               	goto	l1883
  3747  0750                     u2040:	
  3748  0750  2F49               	goto	l1879
  3749  0751                     l1883:	
  3750  0751  082D               	movf	___flmul@aexp,w
  3751  0752  1903               	btfsc	3,2
  3752  0753  2F55               	goto	u2051
  3753  0754  2F56               	goto	u2050
  3754  0755                     u2051:	
  3755  0755  2F87               	goto	l1893
  3756  0756                     u2050:	
  3757  0756                     l1885:	
  3758  0756  3001               	movlw	1
  3759  0757  07AF               	addwf	___flmul@prod,f
  3760  0758  3000               	movlw	0
  3761  0759  1803               	skipnc
  3762  075A  3001               	movlw	1
  3763  075B  07B0               	addwf	___flmul@prod+1,f
  3764  075C  3000               	movlw	0
  3765  075D  1803               	skipnc
  3766  075E  3001               	movlw	1
  3767  075F  07B1               	addwf	___flmul@prod+2,f
  3768  0760  3000               	movlw	0
  3769  0761  1803               	skipnc
  3770  0762  3001               	movlw	1
  3771  0763  07B2               	addwf	___flmul@prod+3,f
  3772  0764                     l1887:	
  3773  0764  1C32               	btfss	___flmul@prod+3,0
  3774  0765  2F67               	goto	u2061
  3775  0766  2F68               	goto	u2060
  3776  0767                     u2061:	
  3777  0767  2F87               	goto	l1893
  3778  0768                     u2060:	
  3779  0768                     l1889:	
  3780  0768  082F               	movf	___flmul@prod,w
  3781  0769  00F9               	movwf	??___flmul
  3782  076A  0830               	movf	___flmul@prod+1,w
  3783  076B  00FA               	movwf	??___flmul+1
  3784  076C  0831               	movf	___flmul@prod+2,w
  3785  076D  00FB               	movwf	??___flmul+2
  3786  076E  0832               	movf	___flmul@prod+3,w
  3787  076F  00FC               	movwf	??___flmul+3
  3788  0770  3001               	movlw	1
  3789  0771  00FD               	movwf	??___flmul+4
  3790  0772                     u2075:	
  3791  0772  0D7C               	rlf	??___flmul+3,w
  3792  0773  0CFC               	rrf	??___flmul+3,f
  3793  0774  0CFB               	rrf	??___flmul+2,f
  3794  0775  0CFA               	rrf	??___flmul+1,f
  3795  0776  0CF9               	rrf	??___flmul,f
  3796  0777                     u2070:	
  3797  0777  0BFD               	decfsz	??___flmul+4,f
  3798  0778  2F72               	goto	u2075
  3799  0779  087C               	movf	??___flmul+3,w
  3800  077A  00B2               	movwf	___flmul@prod+3
  3801  077B  087B               	movf	??___flmul+2,w
  3802  077C  00B1               	movwf	___flmul@prod+2
  3803  077D  087A               	movf	??___flmul+1,w
  3804  077E  00B0               	movwf	___flmul@prod+1
  3805  077F  0879               	movf	??___flmul,w
  3806  0780  00AF               	movwf	___flmul@prod
  3807  0781                     l1891:	
  3808  0781  3001               	movlw	1
  3809  0782  07B3               	addwf	___flmul@temp,f
  3810  0783  1803               	skipnc
  3811  0784  0AB4               	incf	___flmul@temp+1,f
  3812  0785  3000               	movlw	0
  3813  0786  07B4               	addwf	___flmul@temp+1,f
  3814  0787                     l1893:	
  3815  0787  0834               	movf	___flmul@temp+1,w
  3816  0788  3A80               	xorlw	128
  3817  0789  00FF               	movwf	btemp+1
  3818  078A  3080               	movlw	128
  3819  078B  027F               	subwf	btemp+1,w
  3820  078C  1D03               	skipz
  3821  078D  2F90               	goto	u2085
  3822  078E  30FF               	movlw	255
  3823  078F  0233               	subwf	___flmul@temp,w
  3824  0790                     u2085:	
  3825  0790  1C03               	skipc
  3826  0791  2F93               	goto	u2081
  3827  0792  2F94               	goto	u2080
  3828  0793                     u2081:	
  3829  0793  2F9F               	goto	l1897
  3830  0794                     u2080:	
  3831  0794                     l1895:	
  3832  0794  307F               	movlw	127
  3833  0795  1283               	bcf	3,5	;RP0=0, select bank0
  3834  0796  1303               	bcf	3,6	;RP1=0, select bank0
  3835  0797  00B2               	movwf	___flmul@prod+3
  3836  0798  3080               	movlw	128
  3837  0799  00B1               	movwf	___flmul@prod+2
  3838  079A  3000               	movlw	0
  3839  079B  00B0               	movwf	___flmul@prod+1
  3840  079C  3000               	movlw	0
  3841  079D  00AF               	movwf	___flmul@prod
  3842  079E  2FD4               	goto	l614
  3843  079F                     l1897:	
  3844  079F  1283               	bcf	3,5	;RP0=0, select bank0
  3845  07A0  1303               	bcf	3,6	;RP1=0, select bank0
  3846  07A1  0834               	movf	___flmul@temp+1,w
  3847  07A2  3A80               	xorlw	128
  3848  07A3  00FF               	movwf	btemp+1
  3849  07A4  3080               	movlw	128
  3850  07A5  027F               	subwf	btemp+1,w
  3851  07A6  1D03               	skipz
  3852  07A7  2FAA               	goto	u2095
  3853  07A8  3001               	movlw	1
  3854  07A9  0233               	subwf	___flmul@temp,w
  3855  07AA                     u2095:	
  3856  07AA  1803               	skipnc
  3857  07AB  2FAD               	goto	u2091
  3858  07AC  2FAE               	goto	u2090
  3859  07AD                     u2091:	
  3860  07AD  2FBA               	goto	l1903
  3861  07AE                     u2090:	
  3862  07AE                     l1899:	
  3863  07AE  3000               	movlw	0
  3864  07AF  1283               	bcf	3,5	;RP0=0, select bank0
  3865  07B0  1303               	bcf	3,6	;RP1=0, select bank0
  3866  07B1  00B2               	movwf	___flmul@prod+3
  3867  07B2  3000               	movlw	0
  3868  07B3  00B1               	movwf	___flmul@prod+2
  3869  07B4  3000               	movlw	0
  3870  07B5  00B0               	movwf	___flmul@prod+1
  3871  07B6  3000               	movlw	0
  3872  07B7  00AF               	movwf	___flmul@prod
  3873  07B8                     l1901:	
  3874  07B8  01A8               	clrf	___flmul@sign
  3875  07B9  2FD4               	goto	l614
  3876  07BA                     l1903:	
  3877  07BA  1283               	bcf	3,5	;RP0=0, select bank0
  3878  07BB  1303               	bcf	3,6	;RP1=0, select bank0
  3879  07BC  0833               	movf	___flmul@temp,w
  3880  07BD  00F9               	movwf	??___flmul
  3881  07BE  0879               	movf	??___flmul,w
  3882  07BF  00AE               	movwf	___flmul@bexp
  3883  07C0  30FF               	movlw	255
  3884  07C1  05AF               	andwf	___flmul@prod,f
  3885  07C2  30FF               	movlw	255
  3886  07C3  05B0               	andwf	___flmul@prod+1,f
  3887  07C4  307F               	movlw	127
  3888  07C5  05B1               	andwf	___flmul@prod+2,f
  3889  07C6  3000               	movlw	0
  3890  07C7  05B2               	andwf	___flmul@prod+3,f
  3891  07C8                     l1905:	
  3892  07C8  1C2E               	btfss	___flmul@bexp,0
  3893  07C9  2FCB               	goto	u2101
  3894  07CA  2FCC               	goto	u2100
  3895  07CB                     u2101:	
  3896  07CB  2FCD               	goto	l1909
  3897  07CC                     u2100:	
  3898  07CC                     l1907:	
  3899  07CC  17B1               	bsf	___flmul@prod+2,7
  3900  07CD                     l1909:	
  3901  07CD  082E               	movf	___flmul@bexp,w
  3902  07CE  00F9               	movwf	??___flmul
  3903  07CF  1003               	clrc
  3904  07D0  0C79               	rrf	??___flmul,w
  3905  07D1  00FA               	movwf	??___flmul+1
  3906  07D2  087A               	movf	??___flmul+1,w
  3907  07D3  00B2               	movwf	___flmul@prod+3
  3908  07D4                     l614:	
  3909  07D4  0828               	movf	___flmul@sign,w
  3910  07D5  00F9               	movwf	??___flmul
  3911  07D6  0879               	movf	??___flmul,w
  3912  07D7  04B2               	iorwf	___flmul@prod+3,f
  3913  07D8                     l1911:	
  3914  07D8  0832               	movf	___flmul@prod+3,w
  3915  07D9  00A3               	movwf	?___flmul+3
  3916  07DA  0831               	movf	___flmul@prod+2,w
  3917  07DB  00A2               	movwf	?___flmul+2
  3918  07DC  0830               	movf	___flmul@prod+1,w
  3919  07DD  00A1               	movwf	?___flmul+1
  3920  07DE  082F               	movf	___flmul@prod,w
  3921  07DF  00A0               	movwf	?___flmul
  3922  07E0                     l602:	
  3923  07E0  0008               	return
  3924  07E1                     __end_of___flmul:	
  3925                           
  3926                           	psect	text9
  3927  0B01                     __ptext9:	
  3928 ;; *************** function __Umul8_16 *****************
  3929 ;; Defined at:
  3930 ;;		line 4 in file "C:\Program Files (x86)\Microchip\xc8\v2.10\pic\sources\c90\common\Umul8_16.c"
  3931 ;; Parameters:    Size  Location     Type
  3932 ;;  multiplier      1    wreg     unsigned char 
  3933 ;;  multiplicand    1    0[COMMON] unsigned char 
  3934 ;; Auto vars:     Size  Location     Type
  3935 ;;  multiplier      1    8[COMMON] unsigned char 
  3936 ;;  word_mpld       2    6[COMMON] unsigned int 
  3937 ;;  product         2    4[COMMON] unsigned int 
  3938 ;; Return value:  Size  Location     Type
  3939 ;;                  2    0[COMMON] unsigned int 
  3940 ;; Registers used:
  3941 ;;		wreg, status,2, status,0
  3942 ;; Tracked objects:
  3943 ;;		On entry : 0/0
  3944 ;;		On exit  : 0/0
  3945 ;;		Unchanged: 0/0
  3946 ;; Data sizes:     COMMON   BANK0   BANK1   BANK3   BANK2
  3947 ;;      Params:         2       0       0       0       0
  3948 ;;      Locals:         5       0       0       0       0
  3949 ;;      Temps:          2       0       0       0       0
  3950 ;;      Totals:         9       0       0       0       0
  3951 ;;Total ram usage:        9 bytes
  3952 ;; Hardware stack levels used:    1
  3953 ;; This function calls:
  3954 ;;		Nothing
  3955 ;; This function is called by:
  3956 ;;		___flmul
  3957 ;; This function uses a non-reentrant model
  3958 ;;
  3959                           
  3960                           
  3961                           ;psect for function __Umul8_16
  3962  0B01                     __Umul8_16:	
  3963                           
  3964                           ;incstack = 0
  3965                           ; Regs used in __Umul8_16: [wreg+status,2+status,0]
  3966                           ;__Umul8_16@multiplier stored from wreg
  3967  0B01  00F8               	movwf	__Umul8_16@multiplier
  3968  0B02                     l1613:	
  3969  0B02  01F4               	clrf	__Umul8_16@product
  3970  0B03  01F5               	clrf	__Umul8_16@product+1
  3971  0B04                     l1615:	
  3972  0B04  0870               	movf	__Umul8_16@multiplicand,w
  3973  0B05  00F2               	movwf	??__Umul8_16
  3974  0B06  01F3               	clrf	??__Umul8_16+1
  3975  0B07  0872               	movf	??__Umul8_16,w
  3976  0B08  00F6               	movwf	__Umul8_16@word_mpld
  3977  0B09  0873               	movf	??__Umul8_16+1,w
  3978  0B0A  00F7               	movwf	__Umul8_16@word_mpld+1
  3979  0B0B                     l1617:	
  3980  0B0B  1C78               	btfss	__Umul8_16@multiplier,0
  3981  0B0C  2B0E               	goto	u1401
  3982  0B0D  2B0F               	goto	u1400
  3983  0B0E                     u1401:	
  3984  0B0E  2B15               	goto	l659
  3985  0B0F                     u1400:	
  3986  0B0F                     l1619:	
  3987  0B0F  0876               	movf	__Umul8_16@word_mpld,w
  3988  0B10  07F4               	addwf	__Umul8_16@product,f
  3989  0B11  1803               	skipnc
  3990  0B12  0AF5               	incf	__Umul8_16@product+1,f
  3991  0B13  0877               	movf	__Umul8_16@word_mpld+1,w
  3992  0B14  07F5               	addwf	__Umul8_16@product+1,f
  3993  0B15                     l659:	
  3994  0B15  3001               	movlw	1
  3995  0B16                     u1415:	
  3996  0B16  1003               	clrc
  3997  0B17  0DF6               	rlf	__Umul8_16@word_mpld,f
  3998  0B18  0DF7               	rlf	__Umul8_16@word_mpld+1,f
  3999  0B19  3EFF               	addlw	-1
  4000  0B1A  1D03               	skipz
  4001  0B1B  2B16               	goto	u1415
  4002  0B1C  1003               	clrc
  4003  0B1D  0CF8               	rrf	__Umul8_16@multiplier,f
  4004  0B1E                     l1621:	
  4005  0B1E  0878               	movf	__Umul8_16@multiplier,w
  4006  0B1F  1D03               	btfss	3,2
  4007  0B20  2B22               	goto	u1421
  4008  0B21  2B23               	goto	u1420
  4009  0B22                     u1421:	
  4010  0B22  2B0B               	goto	l1617
  4011  0B23                     u1420:	
  4012  0B23                     l1623:	
  4013  0B23  0875               	movf	__Umul8_16@product+1,w
  4014  0B24  00F1               	movwf	?__Umul8_16+1
  4015  0B25  0874               	movf	__Umul8_16@product,w
  4016  0B26  00F0               	movwf	?__Umul8_16
  4017  0B27                     l661:	
  4018  0B27  0008               	return
  4019  0B28                     __end_of__Umul8_16:	
  4020                           
  4021                           	psect	text10
  4022  0A7D                     __ptext10:	
  4023 ;; *************** function ___bmul *****************
  4024 ;; Defined at:
  4025 ;;		line 4 in file "C:\Program Files (x86)\Microchip\xc8\v2.10\pic\sources\c90\common\Umul8.c"
  4026 ;; Parameters:    Size  Location     Type
  4027 ;;  multiplier      1    wreg     unsigned char 
  4028 ;;  multiplicand    1    0[COMMON] unsigned char 
  4029 ;; Auto vars:     Size  Location     Type
  4030 ;;  multiplier      1    3[COMMON] unsigned char 
  4031 ;;  product         1    2[COMMON] unsigned char 
  4032 ;; Return value:  Size  Location     Type
  4033 ;;                  1    wreg      unsigned char 
  4034 ;; Registers used:
  4035 ;;		wreg, status,2, status,0
  4036 ;; Tracked objects:
  4037 ;;		On entry : 0/0
  4038 ;;		On exit  : 0/0
  4039 ;;		Unchanged: 0/0
  4040 ;; Data sizes:     COMMON   BANK0   BANK1   BANK3   BANK2
  4041 ;;      Params:         1       0       0       0       0
  4042 ;;      Locals:         2       0       0       0       0
  4043 ;;      Temps:          1       0       0       0       0
  4044 ;;      Totals:         4       0       0       0       0
  4045 ;;Total ram usage:        4 bytes
  4046 ;; Hardware stack levels used:    1
  4047 ;; This function calls:
  4048 ;;		Nothing
  4049 ;; This function is called by:
  4050 ;;		_disp_num
  4051 ;; This function uses a non-reentrant model
  4052 ;;
  4053                           
  4054                           
  4055                           ;psect for function ___bmul
  4056  0A7D                     ___bmul:	
  4057                           
  4058                           ;incstack = 0
  4059                           ; Regs used in ___bmul: [wreg+status,2+status,0]
  4060                           ;___bmul@multiplier stored from wreg
  4061  0A7D  00F3               	movwf	___bmul@multiplier
  4062  0A7E                     l1643:	
  4063  0A7E  01F2               	clrf	___bmul@product
  4064  0A7F                     l1645:	
  4065  0A7F  1C73               	btfss	___bmul@multiplier,0
  4066  0A80  2A82               	goto	u1431
  4067  0A81  2A83               	goto	u1430
  4068  0A82                     u1431:	
  4069  0A82  2A87               	goto	l1649
  4070  0A83                     u1430:	
  4071  0A83                     l1647:	
  4072  0A83  0870               	movf	___bmul@multiplicand,w
  4073  0A84  00F1               	movwf	??___bmul
  4074  0A85  0871               	movf	??___bmul,w
  4075  0A86  07F2               	addwf	___bmul@product,f
  4076  0A87                     l1649:	
  4077  0A87  1003               	clrc
  4078  0A88  0DF0               	rlf	___bmul@multiplicand,f
  4079  0A89                     l1651:	
  4080  0A89  1003               	clrc
  4081  0A8A  0CF3               	rrf	___bmul@multiplier,f
  4082  0A8B  0873               	movf	___bmul@multiplier,w
  4083  0A8C  1D03               	btfss	3,2
  4084  0A8D  2A8F               	goto	u1441
  4085  0A8E  2A90               	goto	u1440
  4086  0A8F                     u1441:	
  4087  0A8F  2A7F               	goto	l1645
  4088  0A90                     u1440:	
  4089  0A90                     l1653:	
  4090  0A90  0872               	movf	___bmul@product,w
  4091  0A91                     l239:	
  4092  0A91  0008               	return
  4093  0A92                     __end_of___bmul:	
  4094                           
  4095                           	psect	text11
  4096  0B28                     __ptext11:	
  4097 ;; *************** function ___awmod *****************
  4098 ;; Defined at:
  4099 ;;		line 5 in file "C:\Program Files (x86)\Microchip\xc8\v2.10\pic\sources\c90\common\awmod.c"
  4100 ;; Parameters:    Size  Location     Type
  4101 ;;  divisor         2    0[COMMON] int 
  4102 ;;  dividend        2    2[COMMON] int 
  4103 ;; Auto vars:     Size  Location     Type
  4104 ;;  sign            1    6[COMMON] unsigned char 
  4105 ;;  counter         1    5[COMMON] unsigned char 
  4106 ;; Return value:  Size  Location     Type
  4107 ;;                  2    0[COMMON] int 
  4108 ;; Registers used:
  4109 ;;		wreg, status,2, status,0
  4110 ;; Tracked objects:
  4111 ;;		On entry : 0/0
  4112 ;;		On exit  : 0/0
  4113 ;;		Unchanged: 0/0
  4114 ;; Data sizes:     COMMON   BANK0   BANK1   BANK3   BANK2
  4115 ;;      Params:         4       0       0       0       0
  4116 ;;      Locals:         2       0       0       0       0
  4117 ;;      Temps:          1       0       0       0       0
  4118 ;;      Totals:         7       0       0       0       0
  4119 ;;Total ram usage:        7 bytes
  4120 ;; Hardware stack levels used:    1
  4121 ;; This function calls:
  4122 ;;		Nothing
  4123 ;; This function is called by:
  4124 ;;		_disp_num
  4125 ;; This function uses a non-reentrant model
  4126 ;;
  4127                           
  4128                           
  4129                           ;psect for function ___awmod
  4130  0B28                     ___awmod:	
  4131  0B28                     l1701:	
  4132                           ;incstack = 0
  4133                           ; Regs used in ___awmod: [wreg+status,2+status,0]
  4134                           
  4135  0B28  01F6               	clrf	___awmod@sign
  4136  0B29                     l1703:	
  4137  0B29  1FF3               	btfss	___awmod@dividend+1,7
  4138  0B2A  2B2C               	goto	u1551
  4139  0B2B  2B2D               	goto	u1550
  4140  0B2C                     u1551:	
  4141  0B2C  2B34               	goto	l1709
  4142  0B2D                     u1550:	
  4143  0B2D                     l1705:	
  4144  0B2D  09F2               	comf	___awmod@dividend,f
  4145  0B2E  09F3               	comf	___awmod@dividend+1,f
  4146  0B2F  0AF2               	incf	___awmod@dividend,f
  4147  0B30  1903               	skipnz
  4148  0B31  0AF3               	incf	___awmod@dividend+1,f
  4149  0B32                     l1707:	
  4150  0B32  01F6               	clrf	___awmod@sign
  4151  0B33  0AF6               	incf	___awmod@sign,f
  4152  0B34                     l1709:	
  4153  0B34  1FF1               	btfss	___awmod@divisor+1,7
  4154  0B35  2B37               	goto	u1561
  4155  0B36  2B38               	goto	u1560
  4156  0B37                     u1561:	
  4157  0B37  2B3D               	goto	l1713
  4158  0B38                     u1560:	
  4159  0B38                     l1711:	
  4160  0B38  09F0               	comf	___awmod@divisor,f
  4161  0B39  09F1               	comf	___awmod@divisor+1,f
  4162  0B3A  0AF0               	incf	___awmod@divisor,f
  4163  0B3B  1903               	skipnz
  4164  0B3C  0AF1               	incf	___awmod@divisor+1,f
  4165  0B3D                     l1713:	
  4166  0B3D  0870               	movf	___awmod@divisor,w
  4167  0B3E  0471               	iorwf	___awmod@divisor+1,w
  4168  0B3F  1903               	btfsc	3,2
  4169  0B40  2B42               	goto	u1571
  4170  0B41  2B43               	goto	u1570
  4171  0B42                     u1571:	
  4172  0B42  2B72               	goto	l1731
  4173  0B43                     u1570:	
  4174  0B43                     l1715:	
  4175  0B43  01F5               	clrf	___awmod@counter
  4176  0B44  0AF5               	incf	___awmod@counter,f
  4177  0B45  2B51               	goto	l1721
  4178  0B46                     l1717:	
  4179  0B46  3001               	movlw	1
  4180  0B47                     u1585:	
  4181  0B47  1003               	clrc
  4182  0B48  0DF0               	rlf	___awmod@divisor,f
  4183  0B49  0DF1               	rlf	___awmod@divisor+1,f
  4184  0B4A  3EFF               	addlw	-1
  4185  0B4B  1D03               	skipz
  4186  0B4C  2B47               	goto	u1585
  4187  0B4D                     l1719:	
  4188  0B4D  3001               	movlw	1
  4189  0B4E  00F4               	movwf	??___awmod
  4190  0B4F  0874               	movf	??___awmod,w
  4191  0B50  07F5               	addwf	___awmod@counter,f
  4192  0B51                     l1721:	
  4193  0B51  1FF1               	btfss	___awmod@divisor+1,7
  4194  0B52  2B54               	goto	u1591
  4195  0B53  2B55               	goto	u1590
  4196  0B54                     u1591:	
  4197  0B54  2B46               	goto	l1717
  4198  0B55                     u1590:	
  4199  0B55                     l1723:	
  4200  0B55  0871               	movf	___awmod@divisor+1,w
  4201  0B56  0273               	subwf	___awmod@dividend+1,w
  4202  0B57  1D03               	skipz
  4203  0B58  2B5B               	goto	u1605
  4204  0B59  0870               	movf	___awmod@divisor,w
  4205  0B5A  0272               	subwf	___awmod@dividend,w
  4206  0B5B                     u1605:	
  4207  0B5B  1C03               	skipc
  4208  0B5C  2B5E               	goto	u1601
  4209  0B5D  2B5F               	goto	u1600
  4210  0B5E                     u1601:	
  4211  0B5E  2B65               	goto	l1727
  4212  0B5F                     u1600:	
  4213  0B5F                     l1725:	
  4214  0B5F  0870               	movf	___awmod@divisor,w
  4215  0B60  02F2               	subwf	___awmod@dividend,f
  4216  0B61  0871               	movf	___awmod@divisor+1,w
  4217  0B62  1C03               	skipc
  4218  0B63  03F3               	decf	___awmod@dividend+1,f
  4219  0B64  02F3               	subwf	___awmod@dividend+1,f
  4220  0B65                     l1727:	
  4221  0B65  3001               	movlw	1
  4222  0B66                     u1615:	
  4223  0B66  1003               	clrc
  4224  0B67  0CF1               	rrf	___awmod@divisor+1,f
  4225  0B68  0CF0               	rrf	___awmod@divisor,f
  4226  0B69  3EFF               	addlw	-1
  4227  0B6A  1D03               	skipz
  4228  0B6B  2B66               	goto	u1615
  4229  0B6C                     l1729:	
  4230  0B6C  3001               	movlw	1
  4231  0B6D  02F5               	subwf	___awmod@counter,f
  4232  0B6E  1D03               	btfss	3,2
  4233  0B6F  2B71               	goto	u1621
  4234  0B70  2B72               	goto	u1620
  4235  0B71                     u1621:	
  4236  0B71  2B55               	goto	l1723
  4237  0B72                     u1620:	
  4238  0B72                     l1731:	
  4239  0B72  0876               	movf	___awmod@sign,w
  4240  0B73  1903               	btfsc	3,2
  4241  0B74  2B76               	goto	u1631
  4242  0B75  2B77               	goto	u1630
  4243  0B76                     u1631:	
  4244  0B76  2B7C               	goto	l1735
  4245  0B77                     u1630:	
  4246  0B77                     l1733:	
  4247  0B77  09F2               	comf	___awmod@dividend,f
  4248  0B78  09F3               	comf	___awmod@dividend+1,f
  4249  0B79  0AF2               	incf	___awmod@dividend,f
  4250  0B7A  1903               	skipnz
  4251  0B7B  0AF3               	incf	___awmod@dividend+1,f
  4252  0B7C                     l1735:	
  4253  0B7C  0873               	movf	___awmod@dividend+1,w
  4254  0B7D  00F1               	movwf	?___awmod+1
  4255  0B7E  0872               	movf	___awmod@dividend,w
  4256  0B7F  00F0               	movwf	?___awmod
  4257  0B80                     l379:	
  4258  0B80  0008               	return
  4259  0B81                     __end_of___awmod:	
  4260                           
  4261                           	psect	text12
  4262  0C41                     __ptext12:	
  4263 ;; *************** function ___awdiv *****************
  4264 ;; Defined at:
  4265 ;;		line 5 in file "C:\Program Files (x86)\Microchip\xc8\v2.10\pic\sources\c90\common\awdiv.c"
  4266 ;; Parameters:    Size  Location     Type
  4267 ;;  divisor         2    0[COMMON] int 
  4268 ;;  dividend        2    2[COMMON] int 
  4269 ;; Auto vars:     Size  Location     Type
  4270 ;;  quotient        2    7[COMMON] int 
  4271 ;;  sign            1    6[COMMON] unsigned char 
  4272 ;;  counter         1    5[COMMON] unsigned char 
  4273 ;; Return value:  Size  Location     Type
  4274 ;;                  2    0[COMMON] int 
  4275 ;; Registers used:
  4276 ;;		wreg, status,2, status,0
  4277 ;; Tracked objects:
  4278 ;;		On entry : 0/0
  4279 ;;		On exit  : 0/0
  4280 ;;		Unchanged: 0/0
  4281 ;; Data sizes:     COMMON   BANK0   BANK1   BANK3   BANK2
  4282 ;;      Params:         4       0       0       0       0
  4283 ;;      Locals:         4       0       0       0       0
  4284 ;;      Temps:          1       0       0       0       0
  4285 ;;      Totals:         9       0       0       0       0
  4286 ;;Total ram usage:        9 bytes
  4287 ;; Hardware stack levels used:    1
  4288 ;; This function calls:
  4289 ;;		Nothing
  4290 ;; This function is called by:
  4291 ;;		_disp_num
  4292 ;; This function uses a non-reentrant model
  4293 ;;
  4294                           
  4295                           
  4296                           ;psect for function ___awdiv
  4297  0C41                     ___awdiv:	
  4298  0C41                     l1657:	
  4299                           ;incstack = 0
  4300                           ; Regs used in ___awdiv: [wreg+status,2+status,0]
  4301                           
  4302  0C41  01F6               	clrf	___awdiv@sign
  4303  0C42                     l1659:	
  4304  0C42  1FF1               	btfss	___awdiv@divisor+1,7
  4305  0C43  2C45               	goto	u1451
  4306  0C44  2C46               	goto	u1450
  4307  0C45                     u1451:	
  4308  0C45  2C4D               	goto	l1665
  4309  0C46                     u1450:	
  4310  0C46                     l1661:	
  4311  0C46  09F0               	comf	___awdiv@divisor,f
  4312  0C47  09F1               	comf	___awdiv@divisor+1,f
  4313  0C48  0AF0               	incf	___awdiv@divisor,f
  4314  0C49  1903               	skipnz
  4315  0C4A  0AF1               	incf	___awdiv@divisor+1,f
  4316  0C4B                     l1663:	
  4317  0C4B  01F6               	clrf	___awdiv@sign
  4318  0C4C  0AF6               	incf	___awdiv@sign,f
  4319  0C4D                     l1665:	
  4320  0C4D  1FF3               	btfss	___awdiv@dividend+1,7
  4321  0C4E  2C50               	goto	u1461
  4322  0C4F  2C51               	goto	u1460
  4323  0C50                     u1461:	
  4324  0C50  2C5A               	goto	l1671
  4325  0C51                     u1460:	
  4326  0C51                     l1667:	
  4327  0C51  09F2               	comf	___awdiv@dividend,f
  4328  0C52  09F3               	comf	___awdiv@dividend+1,f
  4329  0C53  0AF2               	incf	___awdiv@dividend,f
  4330  0C54  1903               	skipnz
  4331  0C55  0AF3               	incf	___awdiv@dividend+1,f
  4332  0C56                     l1669:	
  4333  0C56  3001               	movlw	1
  4334  0C57  00F4               	movwf	??___awdiv
  4335  0C58  0874               	movf	??___awdiv,w
  4336  0C59  06F6               	xorwf	___awdiv@sign,f
  4337  0C5A                     l1671:	
  4338  0C5A  01F7               	clrf	___awdiv@quotient
  4339  0C5B  01F8               	clrf	___awdiv@quotient+1
  4340  0C5C                     l1673:	
  4341  0C5C  0870               	movf	___awdiv@divisor,w
  4342  0C5D  0471               	iorwf	___awdiv@divisor+1,w
  4343  0C5E  1903               	btfsc	3,2
  4344  0C5F  2C61               	goto	u1471
  4345  0C60  2C62               	goto	u1470
  4346  0C61                     u1471:	
  4347  0C61  2C99               	goto	l1693
  4348  0C62                     u1470:	
  4349  0C62                     l1675:	
  4350  0C62  01F5               	clrf	___awdiv@counter
  4351  0C63  0AF5               	incf	___awdiv@counter,f
  4352  0C64  2C70               	goto	l1681
  4353  0C65                     l1677:	
  4354  0C65  3001               	movlw	1
  4355  0C66                     u1485:	
  4356  0C66  1003               	clrc
  4357  0C67  0DF0               	rlf	___awdiv@divisor,f
  4358  0C68  0DF1               	rlf	___awdiv@divisor+1,f
  4359  0C69  3EFF               	addlw	-1
  4360  0C6A  1D03               	skipz
  4361  0C6B  2C66               	goto	u1485
  4362  0C6C                     l1679:	
  4363  0C6C  3001               	movlw	1
  4364  0C6D  00F4               	movwf	??___awdiv
  4365  0C6E  0874               	movf	??___awdiv,w
  4366  0C6F  07F5               	addwf	___awdiv@counter,f
  4367  0C70                     l1681:	
  4368  0C70  1FF1               	btfss	___awdiv@divisor+1,7
  4369  0C71  2C73               	goto	u1491
  4370  0C72  2C74               	goto	u1490
  4371  0C73                     u1491:	
  4372  0C73  2C65               	goto	l1677
  4373  0C74                     u1490:	
  4374  0C74                     l1683:	
  4375  0C74  3001               	movlw	1
  4376  0C75                     u1505:	
  4377  0C75  1003               	clrc
  4378  0C76  0DF7               	rlf	___awdiv@quotient,f
  4379  0C77  0DF8               	rlf	___awdiv@quotient+1,f
  4380  0C78  3EFF               	addlw	-1
  4381  0C79  1D03               	skipz
  4382  0C7A  2C75               	goto	u1505
  4383  0C7B  0871               	movf	___awdiv@divisor+1,w
  4384  0C7C  0273               	subwf	___awdiv@dividend+1,w
  4385  0C7D  1D03               	skipz
  4386  0C7E  2C81               	goto	u1515
  4387  0C7F  0870               	movf	___awdiv@divisor,w
  4388  0C80  0272               	subwf	___awdiv@dividend,w
  4389  0C81                     u1515:	
  4390  0C81  1C03               	skipc
  4391  0C82  2C84               	goto	u1511
  4392  0C83  2C85               	goto	u1510
  4393  0C84                     u1511:	
  4394  0C84  2C8C               	goto	l1689
  4395  0C85                     u1510:	
  4396  0C85                     l1685:	
  4397  0C85  0870               	movf	___awdiv@divisor,w
  4398  0C86  02F2               	subwf	___awdiv@dividend,f
  4399  0C87  0871               	movf	___awdiv@divisor+1,w
  4400  0C88  1C03               	skipc
  4401  0C89  03F3               	decf	___awdiv@dividend+1,f
  4402  0C8A  02F3               	subwf	___awdiv@dividend+1,f
  4403  0C8B                     l1687:	
  4404  0C8B  1477               	bsf	___awdiv@quotient,0
  4405  0C8C                     l1689:	
  4406  0C8C  3001               	movlw	1
  4407  0C8D                     u1525:	
  4408  0C8D  1003               	clrc
  4409  0C8E  0CF1               	rrf	___awdiv@divisor+1,f
  4410  0C8F  0CF0               	rrf	___awdiv@divisor,f
  4411  0C90  3EFF               	addlw	-1
  4412  0C91  1D03               	skipz
  4413  0C92  2C8D               	goto	u1525
  4414  0C93                     l1691:	
  4415  0C93  3001               	movlw	1
  4416  0C94  02F5               	subwf	___awdiv@counter,f
  4417  0C95  1D03               	btfss	3,2
  4418  0C96  2C98               	goto	u1531
  4419  0C97  2C99               	goto	u1530
  4420  0C98                     u1531:	
  4421  0C98  2C74               	goto	l1683
  4422  0C99                     u1530:	
  4423  0C99                     l1693:	
  4424  0C99  0876               	movf	___awdiv@sign,w
  4425  0C9A  1903               	btfsc	3,2
  4426  0C9B  2C9D               	goto	u1541
  4427  0C9C  2C9E               	goto	u1540
  4428  0C9D                     u1541:	
  4429  0C9D  2CA3               	goto	l1697
  4430  0C9E                     u1540:	
  4431  0C9E                     l1695:	
  4432  0C9E  09F7               	comf	___awdiv@quotient,f
  4433  0C9F  09F8               	comf	___awdiv@quotient+1,f
  4434  0CA0  0AF7               	incf	___awdiv@quotient,f
  4435  0CA1  1903               	skipnz
  4436  0CA2  0AF8               	incf	___awdiv@quotient+1,f
  4437  0CA3                     l1697:	
  4438  0CA3  0878               	movf	___awdiv@quotient+1,w
  4439  0CA4  00F1               	movwf	?___awdiv+1
  4440  0CA5  0877               	movf	___awdiv@quotient,w
  4441  0CA6  00F0               	movwf	?___awdiv
  4442  0CA7                     l366:	
  4443  0CA7  0008               	return
  4444  0CA8                     __end_of___awdiv:	
  4445                           
  4446                           	psect	text13
  4447  0CA8                     __ptext13:	
  4448 ;; *************** function ___xxtofl *****************
  4449 ;; Defined at:
  4450 ;;		line 10 in file "C:\Program Files (x86)\Microchip\xc8\v2.10\pic\sources\c90\common\xxtofl.c"
  4451 ;; Parameters:    Size  Location     Type
  4452 ;;  sign            1    wreg     unsigned char 
  4453 ;;  val             4    6[COMMON] long 
  4454 ;; Auto vars:     Size  Location     Type
  4455 ;;  sign            1    0[BANK0 ] unsigned char 
  4456 ;;  arg             4    2[BANK0 ] unsigned long 
  4457 ;;  exp             1    1[BANK0 ] unsigned char 
  4458 ;; Return value:  Size  Location     Type
  4459 ;;                  4    6[COMMON] unsigned char 
  4460 ;; Registers used:
  4461 ;;		wreg, status,2, status,0
  4462 ;; Tracked objects:
  4463 ;;		On entry : 0/0
  4464 ;;		On exit  : 0/0
  4465 ;;		Unchanged: 0/0
  4466 ;; Data sizes:     COMMON   BANK0   BANK1   BANK3   BANK2
  4467 ;;      Params:         4       0       0       0       0
  4468 ;;      Locals:         0       6       0       0       0
  4469 ;;      Temps:          4       0       0       0       0
  4470 ;;      Totals:         8       6       0       0       0
  4471 ;;Total ram usage:       14 bytes
  4472 ;; Hardware stack levels used:    1
  4473 ;; This function calls:
  4474 ;;		Nothing
  4475 ;; This function is called by:
  4476 ;;		_main
  4477 ;; This function uses a non-reentrant model
  4478 ;;
  4479                           
  4480                           
  4481                           ;psect for function ___xxtofl
  4482  0CA8                     ___xxtofl:	
  4483                           
  4484                           ;incstack = 0
  4485                           ; Regs used in ___xxtofl: [wreg+status,2+status,0]
  4486                           ;___xxtofl@sign stored from wreg
  4487  0CA8  1283               	bcf	3,5	;RP0=0, select bank0
  4488  0CA9  1303               	bcf	3,6	;RP1=0, select bank0
  4489  0CAA  00A0               	movwf	___xxtofl@sign
  4490  0CAB                     l2321:	
  4491  0CAB  0820               	movf	___xxtofl@sign,w
  4492  0CAC  1903               	btfsc	3,2
  4493  0CAD  2CAF               	goto	u2611
  4494  0CAE  2CB0               	goto	u2610
  4495  0CAF                     u2611:	
  4496  0CAF  2CC4               	goto	l2327
  4497  0CB0                     u2610:	
  4498  0CB0                     l2323:	
  4499  0CB0  1FF9               	btfss	___xxtofl@val+3,7
  4500  0CB1  2CB3               	goto	u2621
  4501  0CB2  2CB4               	goto	u2620
  4502  0CB3                     u2621:	
  4503  0CB3  2CC4               	goto	l2327
  4504  0CB4                     u2620:	
  4505  0CB4                     l2325:	
  4506  0CB4  0976               	comf	___xxtofl@val,w
  4507  0CB5  00A2               	movwf	___xxtofl@arg
  4508  0CB6  0977               	comf	___xxtofl@val+1,w
  4509  0CB7  00A3               	movwf	___xxtofl@arg+1
  4510  0CB8  0978               	comf	___xxtofl@val+2,w
  4511  0CB9  00A4               	movwf	___xxtofl@arg+2
  4512  0CBA  0979               	comf	___xxtofl@val+3,w
  4513  0CBB  00A5               	movwf	___xxtofl@arg+3
  4514  0CBC  0AA2               	incf	___xxtofl@arg,f
  4515  0CBD  1903               	skipnz
  4516  0CBE  0AA3               	incf	___xxtofl@arg+1,f
  4517  0CBF  1903               	skipnz
  4518  0CC0  0AA4               	incf	___xxtofl@arg+2,f
  4519  0CC1  1903               	skipnz
  4520  0CC2  0AA5               	incf	___xxtofl@arg+3,f
  4521  0CC3  2CCC               	goto	l640
  4522  0CC4                     l2327:	
  4523  0CC4  0879               	movf	___xxtofl@val+3,w
  4524  0CC5  00A5               	movwf	___xxtofl@arg+3
  4525  0CC6  0878               	movf	___xxtofl@val+2,w
  4526  0CC7  00A4               	movwf	___xxtofl@arg+2
  4527  0CC8  0877               	movf	___xxtofl@val+1,w
  4528  0CC9  00A3               	movwf	___xxtofl@arg+1
  4529  0CCA  0876               	movf	___xxtofl@val,w
  4530  0CCB  00A2               	movwf	___xxtofl@arg
  4531  0CCC                     l640:	
  4532  0CCC  0879               	movf	___xxtofl@val+3,w
  4533  0CCD  0478               	iorwf	___xxtofl@val+2,w
  4534  0CCE  0477               	iorwf	___xxtofl@val+1,w
  4535  0CCF  0476               	iorwf	___xxtofl@val,w
  4536  0CD0  1D03               	skipz
  4537  0CD1  2CD3               	goto	u2631
  4538  0CD2  2CD4               	goto	u2630
  4539  0CD3                     u2631:	
  4540  0CD3  2CDD               	goto	l2333
  4541  0CD4                     u2630:	
  4542  0CD4                     l2329:	
  4543  0CD4  3000               	movlw	0
  4544  0CD5  00F9               	movwf	?___xxtofl+3
  4545  0CD6  3000               	movlw	0
  4546  0CD7  00F8               	movwf	?___xxtofl+2
  4547  0CD8  3000               	movlw	0
  4548  0CD9  00F7               	movwf	?___xxtofl+1
  4549  0CDA  3000               	movlw	0
  4550  0CDB  00F6               	movwf	?___xxtofl
  4551  0CDC  2D63               	goto	l642
  4552  0CDD                     l2333:	
  4553  0CDD  3096               	movlw	150
  4554  0CDE  00FA               	movwf	??___xxtofl
  4555  0CDF  087A               	movf	??___xxtofl,w
  4556  0CE0  00A1               	movwf	___xxtofl@exp
  4557  0CE1  2CEF               	goto	l2337
  4558  0CE2                     l2335:	
  4559  0CE2  3001               	movlw	1
  4560  0CE3  00FA               	movwf	??___xxtofl
  4561  0CE4  087A               	movf	??___xxtofl,w
  4562  0CE5  07A1               	addwf	___xxtofl@exp,f
  4563  0CE6  3001               	movlw	1
  4564  0CE7                     u2645:	
  4565  0CE7  1003               	clrc
  4566  0CE8  0CA5               	rrf	___xxtofl@arg+3,f
  4567  0CE9  0CA4               	rrf	___xxtofl@arg+2,f
  4568  0CEA  0CA3               	rrf	___xxtofl@arg+1,f
  4569  0CEB  0CA2               	rrf	___xxtofl@arg,f
  4570  0CEC  3EFF               	addlw	-1
  4571  0CED  1D03               	skipz
  4572  0CEE  2CE7               	goto	u2645
  4573  0CEF                     l2337:	
  4574  0CEF  30FE               	movlw	254
  4575  0CF0  0525               	andwf	___xxtofl@arg+3,w
  4576  0CF1  1D03               	btfss	3,2
  4577  0CF2  2CF4               	goto	u2651
  4578  0CF3  2CF5               	goto	u2650
  4579  0CF4                     u2651:	
  4580  0CF4  2CE2               	goto	l2335
  4581  0CF5                     u2650:	
  4582  0CF5  2D11               	goto	l646
  4583  0CF6                     l2339:	
  4584  0CF6  3001               	movlw	1
  4585  0CF7  00FA               	movwf	??___xxtofl
  4586  0CF8  087A               	movf	??___xxtofl,w
  4587  0CF9  07A1               	addwf	___xxtofl@exp,f
  4588  0CFA                     l2341:	
  4589  0CFA  3001               	movlw	1
  4590  0CFB  07A2               	addwf	___xxtofl@arg,f
  4591  0CFC  3000               	movlw	0
  4592  0CFD  1803               	skipnc
  4593  0CFE  3001               	movlw	1
  4594  0CFF  07A3               	addwf	___xxtofl@arg+1,f
  4595  0D00  3000               	movlw	0
  4596  0D01  1803               	skipnc
  4597  0D02  3001               	movlw	1
  4598  0D03  07A4               	addwf	___xxtofl@arg+2,f
  4599  0D04  3000               	movlw	0
  4600  0D05  1803               	skipnc
  4601  0D06  3001               	movlw	1
  4602  0D07  07A5               	addwf	___xxtofl@arg+3,f
  4603  0D08                     l2343:	
  4604  0D08  3001               	movlw	1
  4605  0D09                     u2665:	
  4606  0D09  1003               	clrc
  4607  0D0A  0CA5               	rrf	___xxtofl@arg+3,f
  4608  0D0B  0CA4               	rrf	___xxtofl@arg+2,f
  4609  0D0C  0CA3               	rrf	___xxtofl@arg+1,f
  4610  0D0D  0CA2               	rrf	___xxtofl@arg,f
  4611  0D0E  3EFF               	addlw	-1
  4612  0D0F  1D03               	skipz
  4613  0D10  2D09               	goto	u2665
  4614  0D11                     l646:	
  4615  0D11  30FF               	movlw	255
  4616  0D12  0525               	andwf	___xxtofl@arg+3,w
  4617  0D13  1D03               	btfss	3,2
  4618  0D14  2D16               	goto	u2671
  4619  0D15  2D17               	goto	u2670
  4620  0D16                     u2671:	
  4621  0D16  2CF6               	goto	l2339
  4622  0D17                     u2670:	
  4623  0D17  2D23               	goto	l2347
  4624  0D18                     l2345:	
  4625  0D18  3001               	movlw	1
  4626  0D19  02A1               	subwf	___xxtofl@exp,f
  4627  0D1A  3001               	movlw	1
  4628  0D1B  00FA               	movwf	??___xxtofl
  4629  0D1C                     u2685:	
  4630  0D1C  1003               	clrc
  4631  0D1D  0DA2               	rlf	___xxtofl@arg,f
  4632  0D1E  0DA3               	rlf	___xxtofl@arg+1,f
  4633  0D1F  0DA4               	rlf	___xxtofl@arg+2,f
  4634  0D20  0DA5               	rlf	___xxtofl@arg+3,f
  4635  0D21  0BFA               	decfsz	??___xxtofl,f
  4636  0D22  2D1C               	goto	u2685
  4637  0D23                     l2347:	
  4638  0D23  1BA4               	btfsc	___xxtofl@arg+2,7
  4639  0D24  2D26               	goto	u2691
  4640  0D25  2D27               	goto	u2690
  4641  0D26                     u2691:	
  4642  0D26  2D2D               	goto	l653
  4643  0D27                     u2690:	
  4644  0D27                     l2349:	
  4645  0D27  3002               	movlw	2
  4646  0D28  0221               	subwf	___xxtofl@exp,w
  4647  0D29  1803               	skipnc
  4648  0D2A  2D2C               	goto	u2701
  4649  0D2B  2D2D               	goto	u2700
  4650  0D2C                     u2701:	
  4651  0D2C  2D18               	goto	l2345
  4652  0D2D                     u2700:	
  4653  0D2D                     l653:	
  4654  0D2D  1821               	btfsc	___xxtofl@exp,0
  4655  0D2E  2D30               	goto	u2711
  4656  0D2F  2D31               	goto	u2710
  4657  0D30                     u2711:	
  4658  0D30  2D39               	goto	l654
  4659  0D31                     u2710:	
  4660  0D31                     l2351:	
  4661  0D31  30FF               	movlw	255
  4662  0D32  05A2               	andwf	___xxtofl@arg,f
  4663  0D33  30FF               	movlw	255
  4664  0D34  05A3               	andwf	___xxtofl@arg+1,f
  4665  0D35  307F               	movlw	127
  4666  0D36  05A4               	andwf	___xxtofl@arg+2,f
  4667  0D37  30FF               	movlw	255
  4668  0D38  05A5               	andwf	___xxtofl@arg+3,f
  4669  0D39                     l654:	
  4670  0D39  1003               	clrc
  4671  0D3A  0CA1               	rrf	___xxtofl@exp,f
  4672  0D3B                     l2353:	
  4673  0D3B  0821               	movf	___xxtofl@exp,w
  4674  0D3C  00FA               	movwf	??___xxtofl
  4675  0D3D  01FB               	clrf	??___xxtofl+1
  4676  0D3E  01FC               	clrf	??___xxtofl+2
  4677  0D3F  01FD               	clrf	??___xxtofl+3
  4678  0D40  3018               	movlw	24
  4679  0D41                     u2725:	
  4680  0D41  1003               	clrc
  4681  0D42  0DFA               	rlf	??___xxtofl,f
  4682  0D43  0DFB               	rlf	??___xxtofl+1,f
  4683  0D44  0DFC               	rlf	??___xxtofl+2,f
  4684  0D45  0DFD               	rlf	??___xxtofl+3,f
  4685  0D46                     u2720:	
  4686  0D46  3EFF               	addlw	-1
  4687  0D47  1D03               	skipz
  4688  0D48  2D41               	goto	u2725
  4689  0D49  087A               	movf	??___xxtofl,w
  4690  0D4A  04A2               	iorwf	___xxtofl@arg,f
  4691  0D4B  087B               	movf	??___xxtofl+1,w
  4692  0D4C  04A3               	iorwf	___xxtofl@arg+1,f
  4693  0D4D  087C               	movf	??___xxtofl+2,w
  4694  0D4E  04A4               	iorwf	___xxtofl@arg+2,f
  4695  0D4F  087D               	movf	??___xxtofl+3,w
  4696  0D50  04A5               	iorwf	___xxtofl@arg+3,f
  4697  0D51                     l2355:	
  4698  0D51  0820               	movf	___xxtofl@sign,w
  4699  0D52  1903               	btfsc	3,2
  4700  0D53  2D55               	goto	u2731
  4701  0D54  2D56               	goto	u2730
  4702  0D55                     u2731:	
  4703  0D55  2D5B               	goto	l2361
  4704  0D56                     u2730:	
  4705  0D56                     l2357:	
  4706  0D56  1FF9               	btfss	___xxtofl@val+3,7
  4707  0D57  2D59               	goto	u2741
  4708  0D58  2D5A               	goto	u2740
  4709  0D59                     u2741:	
  4710  0D59  2D5B               	goto	l2361
  4711  0D5A                     u2740:	
  4712  0D5A                     l2359:	
  4713  0D5A  17A5               	bsf	___xxtofl@arg+3,7
  4714  0D5B                     l2361:	
  4715  0D5B  0825               	movf	___xxtofl@arg+3,w
  4716  0D5C  00F9               	movwf	?___xxtofl+3
  4717  0D5D  0824               	movf	___xxtofl@arg+2,w
  4718  0D5E  00F8               	movwf	?___xxtofl+2
  4719  0D5F  0823               	movf	___xxtofl@arg+1,w
  4720  0D60  00F7               	movwf	?___xxtofl+1
  4721  0D61  0822               	movf	___xxtofl@arg,w
  4722  0D62  00F6               	movwf	?___xxtofl
  4723  0D63                     l642:	
  4724  0D63  0008               	return
  4725  0D64                     __end_of___xxtofl:	
  4726                           
  4727                           	psect	text14
  4728  0A92                     __ptext14:	
  4729 ;; *************** function ___wmul *****************
  4730 ;; Defined at:
  4731 ;;		line 15 in file "C:\Program Files (x86)\Microchip\xc8\v2.10\pic\sources\c90\common\Umul16.c"
  4732 ;; Parameters:    Size  Location     Type
  4733 ;;  multiplier      2    0[COMMON] unsigned int 
  4734 ;;  multiplicand    2    2[COMMON] unsigned int 
  4735 ;; Auto vars:     Size  Location     Type
  4736 ;;  product         2    4[COMMON] unsigned int 
  4737 ;; Return value:  Size  Location     Type
  4738 ;;                  2    0[COMMON] unsigned int 
  4739 ;; Registers used:
  4740 ;;		wreg, status,2, status,0
  4741 ;; Tracked objects:
  4742 ;;		On entry : 0/0
  4743 ;;		On exit  : 0/0
  4744 ;;		Unchanged: 0/0
  4745 ;; Data sizes:     COMMON   BANK0   BANK1   BANK3   BANK2
  4746 ;;      Params:         4       0       0       0       0
  4747 ;;      Locals:         2       0       0       0       0
  4748 ;;      Temps:          0       0       0       0       0
  4749 ;;      Totals:         6       0       0       0       0
  4750 ;;Total ram usage:        6 bytes
  4751 ;; Hardware stack levels used:    1
  4752 ;; This function calls:
  4753 ;;		Nothing
  4754 ;; This function is called by:
  4755 ;;		_main
  4756 ;; This function uses a non-reentrant model
  4757 ;;
  4758                           
  4759                           
  4760                           ;psect for function ___wmul
  4761  0A92                     ___wmul:	
  4762  0A92                     l2165:	
  4763                           ;incstack = 0
  4764                           ; Regs used in ___wmul: [wreg+status,2+status,0]
  4765                           
  4766  0A92  01F4               	clrf	___wmul@product
  4767  0A93  01F5               	clrf	___wmul@product+1
  4768  0A94                     l2167:	
  4769  0A94  1C70               	btfss	___wmul@multiplier,0
  4770  0A95  2A97               	goto	u2281
  4771  0A96  2A98               	goto	u2280
  4772  0A97                     u2281:	
  4773  0A97  2A9E               	goto	l213
  4774  0A98                     u2280:	
  4775  0A98                     l2169:	
  4776  0A98  0872               	movf	___wmul@multiplicand,w
  4777  0A99  07F4               	addwf	___wmul@product,f
  4778  0A9A  1803               	skipnc
  4779  0A9B  0AF5               	incf	___wmul@product+1,f
  4780  0A9C  0873               	movf	___wmul@multiplicand+1,w
  4781  0A9D  07F5               	addwf	___wmul@product+1,f
  4782  0A9E                     l213:	
  4783  0A9E  3001               	movlw	1
  4784  0A9F                     u2295:	
  4785  0A9F  1003               	clrc
  4786  0AA0  0DF2               	rlf	___wmul@multiplicand,f
  4787  0AA1  0DF3               	rlf	___wmul@multiplicand+1,f
  4788  0AA2  3EFF               	addlw	-1
  4789  0AA3  1D03               	skipz
  4790  0AA4  2A9F               	goto	u2295
  4791  0AA5                     l2171:	
  4792  0AA5  3001               	movlw	1
  4793  0AA6                     u2305:	
  4794  0AA6  1003               	clrc
  4795  0AA7  0CF1               	rrf	___wmul@multiplier+1,f
  4796  0AA8  0CF0               	rrf	___wmul@multiplier,f
  4797  0AA9  3EFF               	addlw	-1
  4798  0AAA  1D03               	skipz
  4799  0AAB  2AA6               	goto	u2305
  4800  0AAC                     l2173:	
  4801  0AAC  0870               	movf	___wmul@multiplier,w
  4802  0AAD  0471               	iorwf	___wmul@multiplier+1,w
  4803  0AAE  1D03               	btfss	3,2
  4804  0AAF  2AB1               	goto	u2311
  4805  0AB0  2AB2               	goto	u2310
  4806  0AB1                     u2311:	
  4807  0AB1  2A94               	goto	l2167
  4808  0AB2                     u2310:	
  4809  0AB2                     l2175:	
  4810  0AB2  0875               	movf	___wmul@product+1,w
  4811  0AB3  00F1               	movwf	?___wmul+1
  4812  0AB4  0874               	movf	___wmul@product,w
  4813  0AB5  00F0               	movwf	?___wmul
  4814  0AB6                     l215:	
  4815  0AB6  0008               	return
  4816  0AB7                     __end_of___wmul:	
  4817                           
  4818                           	psect	text15
  4819  0E23                     __ptext15:	
  4820 ;; *************** function ___fldiv *****************
  4821 ;; Defined at:
  4822 ;;		line 8 in file "C:\Program Files (x86)\Microchip\xc8\v2.10\pic\sources\c90\common\sprcdiv.c"
  4823 ;; Parameters:    Size  Location     Type
  4824 ;;  a               4    6[BANK0 ] unsigned int 
  4825 ;;  b               4   10[BANK0 ] unsigned int 
  4826 ;; Auto vars:     Size  Location     Type
  4827 ;;  grs             4   26[BANK0 ] unsigned long 
  4828 ;;  rem             4   19[BANK0 ] unsigned long 
  4829 ;;  new_exp         2   24[BANK0 ] int 
  4830 ;;  aexp            1   31[BANK0 ] unsigned char 
  4831 ;;  bexp            1   30[BANK0 ] unsigned char 
  4832 ;;  sign            1   23[BANK0 ] unsigned char 
  4833 ;; Return value:  Size  Location     Type
  4834 ;;                  4    6[BANK0 ] unsigned char 
  4835 ;; Registers used:
  4836 ;;		wreg, status,2, status,0, btemp+1
  4837 ;; Tracked objects:
  4838 ;;		On entry : 0/0
  4839 ;;		On exit  : 0/0
  4840 ;;		Unchanged: 0/0
  4841 ;; Data sizes:     COMMON   BANK0   BANK1   BANK3   BANK2
  4842 ;;      Params:         0       8       0       0       0
  4843 ;;      Locals:         0      13       0       0       0
  4844 ;;      Temps:          0       5       0       0       0
  4845 ;;      Totals:         0      26       0       0       0
  4846 ;;Total ram usage:       26 bytes
  4847 ;; Hardware stack levels used:    1
  4848 ;; This function calls:
  4849 ;;		Nothing
  4850 ;; This function is called by:
  4851 ;;		_main
  4852 ;; This function uses a non-reentrant model
  4853 ;;
  4854                           
  4855                           
  4856                           ;psect for function ___fldiv
  4857  0E23                     ___fldiv:	
  4858  0E23                     l2179:	
  4859                           ;incstack = 0
  4860                           ; Regs used in ___fldiv: [wreg+status,2+status,0+btemp+1]
  4861                           
  4862  0E23  1283               	bcf	3,5	;RP0=0, select bank0
  4863  0E24  1303               	bcf	3,6	;RP1=0, select bank0
  4864  0E25  082D               	movf	___fldiv@b+3,w
  4865  0E26  3980               	andlw	128
  4866  0E27  00AE               	movwf	??___fldiv
  4867  0E28  082E               	movf	??___fldiv,w
  4868  0E29  00B7               	movwf	___fldiv@sign
  4869  0E2A                     l2181:	
  4870  0E2A  082D               	movf	___fldiv@b+3,w
  4871  0E2B  00AE               	movwf	??___fldiv
  4872  0E2C  072E               	addwf	??___fldiv,w
  4873  0E2D  00AF               	movwf	??___fldiv+1
  4874  0E2E  082F               	movf	??___fldiv+1,w
  4875  0E2F  00BE               	movwf	___fldiv@bexp
  4876  0E30                     l2183:	
  4877  0E30  1FAC               	btfss	___fldiv@b+2,7
  4878  0E31  2E33               	goto	u2321
  4879  0E32  2E34               	goto	u2320
  4880  0E33                     u2321:	
  4881  0E33  2E35               	goto	l2187
  4882  0E34                     u2320:	
  4883  0E34                     l2185:	
  4884  0E34  143E               	bsf	___fldiv@bexp,0
  4885  0E35                     l2187:	
  4886  0E35  083E               	movf	___fldiv@bexp,w
  4887  0E36  1903               	btfsc	3,2
  4888  0E37  2E39               	goto	u2331
  4889  0E38  2E3A               	goto	u2330
  4890  0E39                     u2331:	
  4891  0E39  2E4A               	goto	l2197
  4892  0E3A                     u2330:	
  4893  0E3A                     l2189:	
  4894  0E3A  0A3E               	incf	___fldiv@bexp,w
  4895  0E3B  1D03               	btfss	3,2
  4896  0E3C  2E3E               	goto	u2341
  4897  0E3D  2E3F               	goto	u2340
  4898  0E3E                     u2341:	
  4899  0E3E  2E47               	goto	l2193
  4900  0E3F                     u2340:	
  4901  0E3F                     l2191:	
  4902  0E3F  3000               	movlw	0
  4903  0E40  00AD               	movwf	___fldiv@b+3
  4904  0E41  3000               	movlw	0
  4905  0E42  00AC               	movwf	___fldiv@b+2
  4906  0E43  3000               	movlw	0
  4907  0E44  00AB               	movwf	___fldiv@b+1
  4908  0E45  3000               	movlw	0
  4909  0E46  00AA               	movwf	___fldiv@b
  4910  0E47                     l2193:	
  4911  0E47  17AC               	bsf	___fldiv@b+2,7
  4912  0E48                     l2195:	
  4913  0E48  01AD               	clrf	___fldiv@b+3
  4914  0E49  2E52               	goto	l2199
  4915  0E4A                     l2197:	
  4916  0E4A  3000               	movlw	0
  4917  0E4B  00AD               	movwf	___fldiv@b+3
  4918  0E4C  3000               	movlw	0
  4919  0E4D  00AC               	movwf	___fldiv@b+2
  4920  0E4E  3000               	movlw	0
  4921  0E4F  00AB               	movwf	___fldiv@b+1
  4922  0E50  3000               	movlw	0
  4923  0E51  00AA               	movwf	___fldiv@b
  4924  0E52                     l2199:	
  4925  0E52  0829               	movf	___fldiv@a+3,w
  4926  0E53  3980               	andlw	128
  4927  0E54  00AE               	movwf	??___fldiv
  4928  0E55  082E               	movf	??___fldiv,w
  4929  0E56  06B7               	xorwf	___fldiv@sign,f
  4930  0E57                     l2201:	
  4931  0E57  0829               	movf	___fldiv@a+3,w
  4932  0E58  00AE               	movwf	??___fldiv
  4933  0E59  072E               	addwf	??___fldiv,w
  4934  0E5A  00AF               	movwf	??___fldiv+1
  4935  0E5B  082F               	movf	??___fldiv+1,w
  4936  0E5C  00BF               	movwf	___fldiv@aexp
  4937  0E5D                     l2203:	
  4938  0E5D  1FA8               	btfss	___fldiv@a+2,7
  4939  0E5E  2E60               	goto	u2351
  4940  0E5F  2E61               	goto	u2350
  4941  0E60                     u2351:	
  4942  0E60  2E62               	goto	l2207
  4943  0E61                     u2350:	
  4944  0E61                     l2205:	
  4945  0E61  143F               	bsf	___fldiv@aexp,0
  4946  0E62                     l2207:	
  4947  0E62  083F               	movf	___fldiv@aexp,w
  4948  0E63  1903               	btfsc	3,2
  4949  0E64  2E66               	goto	u2361
  4950  0E65  2E67               	goto	u2360
  4951  0E66                     u2361:	
  4952  0E66  2E77               	goto	l2217
  4953  0E67                     u2360:	
  4954  0E67                     l2209:	
  4955  0E67  0A3F               	incf	___fldiv@aexp,w
  4956  0E68  1D03               	btfss	3,2
  4957  0E69  2E6B               	goto	u2371
  4958  0E6A  2E6C               	goto	u2370
  4959  0E6B                     u2371:	
  4960  0E6B  2E74               	goto	l2213
  4961  0E6C                     u2370:	
  4962  0E6C                     l2211:	
  4963  0E6C  3000               	movlw	0
  4964  0E6D  00A9               	movwf	___fldiv@a+3
  4965  0E6E  3000               	movlw	0
  4966  0E6F  00A8               	movwf	___fldiv@a+2
  4967  0E70  3000               	movlw	0
  4968  0E71  00A7               	movwf	___fldiv@a+1
  4969  0E72  3000               	movlw	0
  4970  0E73  00A6               	movwf	___fldiv@a
  4971  0E74                     l2213:	
  4972  0E74  17A8               	bsf	___fldiv@a+2,7
  4973  0E75                     l2215:	
  4974  0E75  01A9               	clrf	___fldiv@a+3
  4975  0E76  2E7F               	goto	l562
  4976  0E77                     l2217:	
  4977  0E77  3000               	movlw	0
  4978  0E78  00A9               	movwf	___fldiv@a+3
  4979  0E79  3000               	movlw	0
  4980  0E7A  00A8               	movwf	___fldiv@a+2
  4981  0E7B  3000               	movlw	0
  4982  0E7C  00A7               	movwf	___fldiv@a+1
  4983  0E7D  3000               	movlw	0
  4984  0E7E  00A6               	movwf	___fldiv@a
  4985  0E7F                     l562:	
  4986  0E7F  0829               	movf	___fldiv@a+3,w
  4987  0E80  0428               	iorwf	___fldiv@a+2,w
  4988  0E81  0427               	iorwf	___fldiv@a+1,w
  4989  0E82  0426               	iorwf	___fldiv@a,w
  4990  0E83  1D03               	skipz
  4991  0E84  2E86               	goto	u2381
  4992  0E85  2E87               	goto	u2380
  4993  0E86                     u2381:	
  4994  0E86  2EA0               	goto	l2227
  4995  0E87                     u2380:	
  4996  0E87                     l2219:	
  4997  0E87  3000               	movlw	0
  4998  0E88  00AD               	movwf	___fldiv@b+3
  4999  0E89  3000               	movlw	0
  5000  0E8A  00AC               	movwf	___fldiv@b+2
  5001  0E8B  3000               	movlw	0
  5002  0E8C  00AB               	movwf	___fldiv@b+1
  5003  0E8D  3000               	movlw	0
  5004  0E8E  00AA               	movwf	___fldiv@b
  5005  0E8F  3080               	movlw	128
  5006  0E90  04AC               	iorwf	___fldiv@b+2,f
  5007  0E91  307F               	movlw	127
  5008  0E92  04AD               	iorwf	___fldiv@b+3,f
  5009  0E93                     l2221:	
  5010  0E93  0837               	movf	___fldiv@sign,w
  5011  0E94  00AE               	movwf	??___fldiv
  5012  0E95  082E               	movf	??___fldiv,w
  5013  0E96  04AD               	iorwf	___fldiv@b+3,f
  5014  0E97                     l2223:	
  5015  0E97  082D               	movf	___fldiv@b+3,w
  5016  0E98  00A9               	movwf	?___fldiv+3
  5017  0E99  082C               	movf	___fldiv@b+2,w
  5018  0E9A  00A8               	movwf	?___fldiv+2
  5019  0E9B  082B               	movf	___fldiv@b+1,w
  5020  0E9C  00A7               	movwf	?___fldiv+1
  5021  0E9D  082A               	movf	___fldiv@b,w
  5022  0E9E  00A6               	movwf	?___fldiv
  5023  0E9F  2FFF               	goto	l564
  5024  0EA0                     l2227:	
  5025  0EA0  083E               	movf	___fldiv@bexp,w
  5026  0EA1  1D03               	btfss	3,2
  5027  0EA2  2EA4               	goto	u2391
  5028  0EA3  2EA5               	goto	u2390
  5029  0EA4                     u2391:	
  5030  0EA4  2EAE               	goto	l2233
  5031  0EA5                     u2390:	
  5032  0EA5                     l2229:	
  5033  0EA5  3000               	movlw	0
  5034  0EA6  00A9               	movwf	?___fldiv+3
  5035  0EA7  3000               	movlw	0
  5036  0EA8  00A8               	movwf	?___fldiv+2
  5037  0EA9  3000               	movlw	0
  5038  0EAA  00A7               	movwf	?___fldiv+1
  5039  0EAB  3000               	movlw	0
  5040  0EAC  00A6               	movwf	?___fldiv
  5041  0EAD  2FFF               	goto	l564
  5042  0EAE                     l2233:	
  5043  0EAE  083E               	movf	___fldiv@bexp,w
  5044  0EAF  00AE               	movwf	??___fldiv
  5045  0EB0  01AF               	clrf	??___fldiv+1
  5046  0EB1  082F               	movf	??___fldiv+1,w
  5047  0EB2  00B1               	movwf	??___fldiv+3
  5048  0EB3  083F               	movf	___fldiv@aexp,w
  5049  0EB4  022E               	subwf	??___fldiv,w
  5050  0EB5  00B0               	movwf	??___fldiv+2
  5051  0EB6  1C03               	skipc
  5052  0EB7  03B1               	decf	??___fldiv+3,f
  5053  0EB8  0830               	movf	??___fldiv+2,w
  5054  0EB9  3E7F               	addlw	127
  5055  0EBA  00B8               	movwf	___fldiv@new_exp
  5056  0EBB  0831               	movf	??___fldiv+3,w
  5057  0EBC  1803               	skipnc
  5058  0EBD  3E01               	addlw	1
  5059  0EBE  3E00               	addlw	0
  5060  0EBF  00B9               	movwf	___fldiv@new_exp+1
  5061  0EC0                     l2235:	
  5062  0EC0  082D               	movf	___fldiv@b+3,w
  5063  0EC1  00B6               	movwf	___fldiv@rem+3
  5064  0EC2  082C               	movf	___fldiv@b+2,w
  5065  0EC3  00B5               	movwf	___fldiv@rem+2
  5066  0EC4  082B               	movf	___fldiv@b+1,w
  5067  0EC5  00B4               	movwf	___fldiv@rem+1
  5068  0EC6  082A               	movf	___fldiv@b,w
  5069  0EC7  00B3               	movwf	___fldiv@rem
  5070  0EC8                     l2237:	
  5071  0EC8  3000               	movlw	0
  5072  0EC9  00AD               	movwf	___fldiv@b+3
  5073  0ECA  3000               	movlw	0
  5074  0ECB  00AC               	movwf	___fldiv@b+2
  5075  0ECC  3000               	movlw	0
  5076  0ECD  00AB               	movwf	___fldiv@b+1
  5077  0ECE  3000               	movlw	0
  5078  0ECF  00AA               	movwf	___fldiv@b
  5079  0ED0                     l2239:	
  5080  0ED0  3000               	movlw	0
  5081  0ED1  00BD               	movwf	___fldiv@grs+3
  5082  0ED2  3000               	movlw	0
  5083  0ED3  00BC               	movwf	___fldiv@grs+2
  5084  0ED4  3000               	movlw	0
  5085  0ED5  00BB               	movwf	___fldiv@grs+1
  5086  0ED6  3000               	movlw	0
  5087  0ED7  00BA               	movwf	___fldiv@grs
  5088  0ED8                     l2241:	
  5089  0ED8  01BF               	clrf	___fldiv@aexp
  5090  0ED9  2F24               	goto	l2261
  5091  0EDA                     l2243:	
  5092  0EDA  083F               	movf	___fldiv@aexp,w
  5093  0EDB  1903               	btfsc	3,2
  5094  0EDC  2EDE               	goto	u2401
  5095  0EDD  2EDF               	goto	u2400
  5096  0EDE                     u2401:	
  5097  0EDE  2EFF               	goto	l2253
  5098  0EDF                     u2400:	
  5099  0EDF                     l2245:	
  5100  0EDF  3001               	movlw	1
  5101  0EE0  00AE               	movwf	??___fldiv
  5102  0EE1                     u2415:	
  5103  0EE1  1003               	clrc
  5104  0EE2  0DB3               	rlf	___fldiv@rem,f
  5105  0EE3  0DB4               	rlf	___fldiv@rem+1,f
  5106  0EE4  0DB5               	rlf	___fldiv@rem+2,f
  5107  0EE5  0DB6               	rlf	___fldiv@rem+3,f
  5108  0EE6  0BAE               	decfsz	??___fldiv,f
  5109  0EE7  2EE1               	goto	u2415
  5110  0EE8  3001               	movlw	1
  5111  0EE9  00AE               	movwf	??___fldiv
  5112  0EEA                     u2425:	
  5113  0EEA  1003               	clrc
  5114  0EEB  0DAA               	rlf	___fldiv@b,f
  5115  0EEC  0DAB               	rlf	___fldiv@b+1,f
  5116  0EED  0DAC               	rlf	___fldiv@b+2,f
  5117  0EEE  0DAD               	rlf	___fldiv@b+3,f
  5118  0EEF  0BAE               	decfsz	??___fldiv,f
  5119  0EF0  2EEA               	goto	u2425
  5120  0EF1                     l2247:	
  5121  0EF1  1FBD               	btfss	___fldiv@grs+3,7
  5122  0EF2  2EF4               	goto	u2431
  5123  0EF3  2EF5               	goto	u2430
  5124  0EF4                     u2431:	
  5125  0EF4  2EF6               	goto	l2251
  5126  0EF5                     u2430:	
  5127  0EF5                     l2249:	
  5128  0EF5  142A               	bsf	___fldiv@b,0
  5129  0EF6                     l2251:	
  5130  0EF6  3001               	movlw	1
  5131  0EF7  00AE               	movwf	??___fldiv
  5132  0EF8                     u2445:	
  5133  0EF8  1003               	clrc
  5134  0EF9  0DBA               	rlf	___fldiv@grs,f
  5135  0EFA  0DBB               	rlf	___fldiv@grs+1,f
  5136  0EFB  0DBC               	rlf	___fldiv@grs+2,f
  5137  0EFC  0DBD               	rlf	___fldiv@grs+3,f
  5138  0EFD  0BAE               	decfsz	??___fldiv,f
  5139  0EFE  2EF8               	goto	u2445
  5140  0EFF                     l2253:	
  5141  0EFF  0829               	movf	___fldiv@a+3,w
  5142  0F00  0236               	subwf	___fldiv@rem+3,w
  5143  0F01  1D03               	skipz
  5144  0F02  2F0D               	goto	u2455
  5145  0F03  0828               	movf	___fldiv@a+2,w
  5146  0F04  0235               	subwf	___fldiv@rem+2,w
  5147  0F05  1D03               	skipz
  5148  0F06  2F0D               	goto	u2455
  5149  0F07  0827               	movf	___fldiv@a+1,w
  5150  0F08  0234               	subwf	___fldiv@rem+1,w
  5151  0F09  1D03               	skipz
  5152  0F0A  2F0D               	goto	u2455
  5153  0F0B  0826               	movf	___fldiv@a,w
  5154  0F0C  0233               	subwf	___fldiv@rem,w
  5155  0F0D                     u2455:	
  5156  0F0D  1C03               	skipc
  5157  0F0E  2F10               	goto	u2451
  5158  0F0F  2F11               	goto	u2450
  5159  0F10                     u2451:	
  5160  0F10  2F20               	goto	l2259
  5161  0F11                     u2450:	
  5162  0F11                     l2255:	
  5163  0F11  173D               	bsf	___fldiv@grs+3,6
  5164  0F12                     l2257:	
  5165  0F12  0826               	movf	___fldiv@a,w
  5166  0F13  02B3               	subwf	___fldiv@rem,f
  5167  0F14  0827               	movf	___fldiv@a+1,w
  5168  0F15  1C03               	skipc
  5169  0F16  0F27               	incfsz	___fldiv@a+1,w
  5170  0F17  02B4               	subwf	___fldiv@rem+1,f
  5171  0F18  0828               	movf	___fldiv@a+2,w
  5172  0F19  1C03               	skipc
  5173  0F1A  0F28               	incfsz	___fldiv@a+2,w
  5174  0F1B  02B5               	subwf	___fldiv@rem+2,f
  5175  0F1C  0829               	movf	___fldiv@a+3,w
  5176  0F1D  1C03               	skipc
  5177  0F1E  0F29               	incfsz	___fldiv@a+3,w
  5178  0F1F  02B6               	subwf	___fldiv@rem+3,f
  5179  0F20                     l2259:	
  5180  0F20  3001               	movlw	1
  5181  0F21  00AE               	movwf	??___fldiv
  5182  0F22  082E               	movf	??___fldiv,w
  5183  0F23  07BF               	addwf	___fldiv@aexp,f
  5184  0F24                     l2261:	
  5185  0F24  301A               	movlw	26
  5186  0F25  023F               	subwf	___fldiv@aexp,w
  5187  0F26  1C03               	skipc
  5188  0F27  2F29               	goto	u2461
  5189  0F28  2F2A               	goto	u2460
  5190  0F29                     u2461:	
  5191  0F29  2EDA               	goto	l2243
  5192  0F2A                     u2460:	
  5193  0F2A                     l2263:	
  5194  0F2A  0836               	movf	___fldiv@rem+3,w
  5195  0F2B  0435               	iorwf	___fldiv@rem+2,w
  5196  0F2C  0434               	iorwf	___fldiv@rem+1,w
  5197  0F2D  0433               	iorwf	___fldiv@rem,w
  5198  0F2E  1903               	skipnz
  5199  0F2F  2F31               	goto	u2471
  5200  0F30  2F32               	goto	u2470
  5201  0F31                     u2471:	
  5202  0F31  2F51               	goto	l2277
  5203  0F32                     u2470:	
  5204  0F32                     l2265:	
  5205  0F32  143A               	bsf	___fldiv@grs,0
  5206  0F33  2F51               	goto	l2277
  5207  0F34                     l2267:	
  5208  0F34  3001               	movlw	1
  5209  0F35  00AE               	movwf	??___fldiv
  5210  0F36                     u2485:	
  5211  0F36  1003               	clrc
  5212  0F37  0DAA               	rlf	___fldiv@b,f
  5213  0F38  0DAB               	rlf	___fldiv@b+1,f
  5214  0F39  0DAC               	rlf	___fldiv@b+2,f
  5215  0F3A  0DAD               	rlf	___fldiv@b+3,f
  5216  0F3B  0BAE               	decfsz	??___fldiv,f
  5217  0F3C  2F36               	goto	u2485
  5218  0F3D                     l2269:	
  5219  0F3D  1FBD               	btfss	___fldiv@grs+3,7
  5220  0F3E  2F40               	goto	u2491
  5221  0F3F  2F41               	goto	u2490
  5222  0F40                     u2491:	
  5223  0F40  2F42               	goto	l2273
  5224  0F41                     u2490:	
  5225  0F41                     l2271:	
  5226  0F41  142A               	bsf	___fldiv@b,0
  5227  0F42                     l2273:	
  5228  0F42  3001               	movlw	1
  5229  0F43  00AE               	movwf	??___fldiv
  5230  0F44                     u2505:	
  5231  0F44  1003               	clrc
  5232  0F45  0DBA               	rlf	___fldiv@grs,f
  5233  0F46  0DBB               	rlf	___fldiv@grs+1,f
  5234  0F47  0DBC               	rlf	___fldiv@grs+2,f
  5235  0F48  0DBD               	rlf	___fldiv@grs+3,f
  5236  0F49  0BAE               	decfsz	??___fldiv,f
  5237  0F4A  2F44               	goto	u2505
  5238  0F4B                     l2275:	
  5239  0F4B  30FF               	movlw	255
  5240  0F4C  07B8               	addwf	___fldiv@new_exp,f
  5241  0F4D  1803               	skipnc
  5242  0F4E  0AB9               	incf	___fldiv@new_exp+1,f
  5243  0F4F  30FF               	movlw	255
  5244  0F50  07B9               	addwf	___fldiv@new_exp+1,f
  5245  0F51                     l2277:	
  5246  0F51  1FAC               	btfss	___fldiv@b+2,7
  5247  0F52  2F54               	goto	u2511
  5248  0F53  2F55               	goto	u2510
  5249  0F54                     u2511:	
  5250  0F54  2F34               	goto	l2267
  5251  0F55                     u2510:	
  5252  0F55                     l2279:	
  5253  0F55  01BF               	clrf	___fldiv@aexp
  5254  0F56                     l2281:	
  5255  0F56  1FBD               	btfss	___fldiv@grs+3,7
  5256  0F57  2F59               	goto	u2521
  5257  0F58  2F5A               	goto	u2520
  5258  0F59                     u2521:	
  5259  0F59  2F76               	goto	l2289
  5260  0F5A                     u2520:	
  5261  0F5A                     l2283:	
  5262  0F5A  30FF               	movlw	255
  5263  0F5B  053A               	andwf	___fldiv@grs,w
  5264  0F5C  00AE               	movwf	??___fldiv
  5265  0F5D  30FF               	movlw	255
  5266  0F5E  053B               	andwf	___fldiv@grs+1,w
  5267  0F5F  00AF               	movwf	??___fldiv+1
  5268  0F60  30FF               	movlw	255
  5269  0F61  053C               	andwf	___fldiv@grs+2,w
  5270  0F62  00B0               	movwf	??___fldiv+2
  5271  0F63  307F               	movlw	127
  5272  0F64  053D               	andwf	___fldiv@grs+3,w
  5273  0F65  00B1               	movwf	??___fldiv+3
  5274  0F66  0831               	movf	??___fldiv+3,w
  5275  0F67  0430               	iorwf	??___fldiv+2,w
  5276  0F68  042F               	iorwf	??___fldiv+1,w
  5277  0F69  042E               	iorwf	??___fldiv,w
  5278  0F6A  1903               	skipnz
  5279  0F6B  2F6D               	goto	u2531
  5280  0F6C  2F6E               	goto	u2530
  5281  0F6D                     u2531:	
  5282  0F6D  2F71               	goto	l578
  5283  0F6E                     u2530:	
  5284  0F6E                     l2285:	
  5285  0F6E  01BF               	clrf	___fldiv@aexp
  5286  0F6F  0ABF               	incf	___fldiv@aexp,f
  5287  0F70  2F76               	goto	l2289
  5288  0F71                     l578:	
  5289  0F71  1C2A               	btfss	___fldiv@b,0
  5290  0F72  2F74               	goto	u2541
  5291  0F73  2F75               	goto	u2540
  5292  0F74                     u2541:	
  5293  0F74  2F76               	goto	l2289
  5294  0F75                     u2540:	
  5295  0F75  2F6E               	goto	l2285
  5296  0F76                     l2289:	
  5297  0F76  083F               	movf	___fldiv@aexp,w
  5298  0F77  1903               	btfsc	3,2
  5299  0F78  2F7A               	goto	u2551
  5300  0F79  2F7B               	goto	u2550
  5301  0F7A                     u2551:	
  5302  0F7A  2FAC               	goto	l2299
  5303  0F7B                     u2550:	
  5304  0F7B                     l2291:	
  5305  0F7B  3001               	movlw	1
  5306  0F7C  07AA               	addwf	___fldiv@b,f
  5307  0F7D  3000               	movlw	0
  5308  0F7E  1803               	skipnc
  5309  0F7F  3001               	movlw	1
  5310  0F80  07AB               	addwf	___fldiv@b+1,f
  5311  0F81  3000               	movlw	0
  5312  0F82  1803               	skipnc
  5313  0F83  3001               	movlw	1
  5314  0F84  07AC               	addwf	___fldiv@b+2,f
  5315  0F85  3000               	movlw	0
  5316  0F86  1803               	skipnc
  5317  0F87  3001               	movlw	1
  5318  0F88  07AD               	addwf	___fldiv@b+3,f
  5319  0F89                     l2293:	
  5320  0F89  1C2D               	btfss	___fldiv@b+3,0
  5321  0F8A  2F8C               	goto	u2561
  5322  0F8B  2F8D               	goto	u2560
  5323  0F8C                     u2561:	
  5324  0F8C  2FAC               	goto	l2299
  5325  0F8D                     u2560:	
  5326  0F8D                     l2295:	
  5327  0F8D  082A               	movf	___fldiv@b,w
  5328  0F8E  00AE               	movwf	??___fldiv
  5329  0F8F  082B               	movf	___fldiv@b+1,w
  5330  0F90  00AF               	movwf	??___fldiv+1
  5331  0F91  082C               	movf	___fldiv@b+2,w
  5332  0F92  00B0               	movwf	??___fldiv+2
  5333  0F93  082D               	movf	___fldiv@b+3,w
  5334  0F94  00B1               	movwf	??___fldiv+3
  5335  0F95  3001               	movlw	1
  5336  0F96  00B2               	movwf	??___fldiv+4
  5337  0F97                     u2575:	
  5338  0F97  0D31               	rlf	??___fldiv+3,w
  5339  0F98  0CB1               	rrf	??___fldiv+3,f
  5340  0F99  0CB0               	rrf	??___fldiv+2,f
  5341  0F9A  0CAF               	rrf	??___fldiv+1,f
  5342  0F9B  0CAE               	rrf	??___fldiv,f
  5343  0F9C                     u2570:	
  5344  0F9C  0BB2               	decfsz	??___fldiv+4,f
  5345  0F9D  2F97               	goto	u2575
  5346  0F9E  0831               	movf	??___fldiv+3,w
  5347  0F9F  00AD               	movwf	___fldiv@b+3
  5348  0FA0  0830               	movf	??___fldiv+2,w
  5349  0FA1  00AC               	movwf	___fldiv@b+2
  5350  0FA2  082F               	movf	??___fldiv+1,w
  5351  0FA3  00AB               	movwf	___fldiv@b+1
  5352  0FA4  082E               	movf	??___fldiv,w
  5353  0FA5  00AA               	movwf	___fldiv@b
  5354  0FA6                     l2297:	
  5355  0FA6  3001               	movlw	1
  5356  0FA7  07B8               	addwf	___fldiv@new_exp,f
  5357  0FA8  1803               	skipnc
  5358  0FA9  0AB9               	incf	___fldiv@new_exp+1,f
  5359  0FAA  3000               	movlw	0
  5360  0FAB  07B9               	addwf	___fldiv@new_exp+1,f
  5361  0FAC                     l2299:	
  5362  0FAC  0839               	movf	___fldiv@new_exp+1,w
  5363  0FAD  3A80               	xorlw	128
  5364  0FAE  00FF               	movwf	btemp+1
  5365  0FAF  3080               	movlw	128
  5366  0FB0  027F               	subwf	btemp+1,w
  5367  0FB1  1D03               	skipz
  5368  0FB2  2FB5               	goto	u2585
  5369  0FB3  30FF               	movlw	255
  5370  0FB4  0238               	subwf	___fldiv@new_exp,w
  5371  0FB5                     u2585:	
  5372  0FB5  1C03               	skipc
  5373  0FB6  2FB8               	goto	u2581
  5374  0FB7  2FB9               	goto	u2580
  5375  0FB8                     u2581:	
  5376  0FB8  2FC7               	goto	l2303
  5377  0FB9                     u2580:	
  5378  0FB9                     l2301:	
  5379  0FB9  30FF               	movlw	255
  5380  0FBA  1283               	bcf	3,5	;RP0=0, select bank0
  5381  0FBB  1303               	bcf	3,6	;RP1=0, select bank0
  5382  0FBC  00B8               	movwf	___fldiv@new_exp
  5383  0FBD  3000               	movlw	0
  5384  0FBE  00B9               	movwf	___fldiv@new_exp+1
  5385  0FBF  3000               	movlw	0
  5386  0FC0  00AD               	movwf	___fldiv@b+3
  5387  0FC1  3000               	movlw	0
  5388  0FC2  00AC               	movwf	___fldiv@b+2
  5389  0FC3  3000               	movlw	0
  5390  0FC4  00AB               	movwf	___fldiv@b+1
  5391  0FC5  3000               	movlw	0
  5392  0FC6  00AA               	movwf	___fldiv@b
  5393  0FC7                     l2303:	
  5394  0FC7  1283               	bcf	3,5	;RP0=0, select bank0
  5395  0FC8  1303               	bcf	3,6	;RP1=0, select bank0
  5396  0FC9  0839               	movf	___fldiv@new_exp+1,w
  5397  0FCA  3A80               	xorlw	128
  5398  0FCB  00FF               	movwf	btemp+1
  5399  0FCC  3080               	movlw	128
  5400  0FCD  027F               	subwf	btemp+1,w
  5401  0FCE  1D03               	skipz
  5402  0FCF  2FD2               	goto	u2595
  5403  0FD0  3001               	movlw	1
  5404  0FD1  0238               	subwf	___fldiv@new_exp,w
  5405  0FD2                     u2595:	
  5406  0FD2  1803               	skipnc
  5407  0FD3  2FD5               	goto	u2591
  5408  0FD4  2FD6               	goto	u2590
  5409  0FD5                     u2591:	
  5410  0FD5  2FE3               	goto	l584
  5411  0FD6                     u2590:	
  5412  0FD6                     l2305:	
  5413  0FD6  1283               	bcf	3,5	;RP0=0, select bank0
  5414  0FD7  1303               	bcf	3,6	;RP1=0, select bank0
  5415  0FD8  01B8               	clrf	___fldiv@new_exp
  5416  0FD9  01B9               	clrf	___fldiv@new_exp+1
  5417  0FDA                     l2307:	
  5418  0FDA  3000               	movlw	0
  5419  0FDB  00AD               	movwf	___fldiv@b+3
  5420  0FDC  3000               	movlw	0
  5421  0FDD  00AC               	movwf	___fldiv@b+2
  5422  0FDE  3000               	movlw	0
  5423  0FDF  00AB               	movwf	___fldiv@b+1
  5424  0FE0  3000               	movlw	0
  5425  0FE1  00AA               	movwf	___fldiv@b
  5426  0FE2                     l2309:	
  5427  0FE2  01B7               	clrf	___fldiv@sign
  5428  0FE3                     l584:	
  5429  0FE3  1283               	bcf	3,5	;RP0=0, select bank0
  5430  0FE4  1303               	bcf	3,6	;RP1=0, select bank0
  5431  0FE5  0838               	movf	___fldiv@new_exp,w
  5432  0FE6  00AE               	movwf	??___fldiv
  5433  0FE7  082E               	movf	??___fldiv,w
  5434  0FE8  00BE               	movwf	___fldiv@bexp
  5435  0FE9                     l2311:	
  5436  0FE9  1C3E               	btfss	___fldiv@bexp,0
  5437  0FEA  2FEC               	goto	u2601
  5438  0FEB  2FED               	goto	u2600
  5439  0FEC                     u2601:	
  5440  0FEC  2FEF               	goto	l2315
  5441  0FED                     u2600:	
  5442  0FED                     l2313:	
  5443  0FED  17AC               	bsf	___fldiv@b+2,7
  5444  0FEE  2FF3               	goto	l586
  5445  0FEF                     l2315:	
  5446  0FEF  307F               	movlw	127
  5447  0FF0  00AE               	movwf	??___fldiv
  5448  0FF1  082E               	movf	??___fldiv,w
  5449  0FF2  05AC               	andwf	___fldiv@b+2,f
  5450  0FF3                     l586:	
  5451  0FF3  083E               	movf	___fldiv@bexp,w
  5452  0FF4  00AE               	movwf	??___fldiv
  5453  0FF5  1003               	clrc
  5454  0FF6  0C2E               	rrf	??___fldiv,w
  5455  0FF7  00AF               	movwf	??___fldiv+1
  5456  0FF8  082F               	movf	??___fldiv+1,w
  5457  0FF9  00AD               	movwf	___fldiv@b+3
  5458  0FFA  0837               	movf	___fldiv@sign,w
  5459  0FFB  00AE               	movwf	??___fldiv
  5460  0FFC  082E               	movf	??___fldiv,w
  5461  0FFD  04AD               	iorwf	___fldiv@b+3,f
  5462  0FFE  2E97               	goto	l2223
  5463  0FFF                     l564:	
  5464  0FFF  0008               	return
  5465  1000                     __end_of___fldiv:	
  5466  007E                     btemp	set	126	;btemp
  5467  007E                     wtemp0	set	126


Data Sizes:
    Strings     0
    Constant    0
    Data        51
    BSS         0
    Persistent  0
    Stack       0

Auto Spaces:
    Space          Size  Autos    Used
    COMMON           14     14      14
    BANK0            80     58      70
    BANK1            80      0      39
    BANK3            96      0       0
    BANK2            96      0       0

Pointer List with Targets:

    None.

Critical Paths under _main in COMMON

    _main->___xxtofl
    _scan_key->_lcddata
    _lcdinit->_lcdcmd
    _disp_num->___flmul
    _disp_num->___xxtofl
    ___fltol->___flmul
    ___flmul->__Umul8_16
    ___xxtofl->___wmul
    ___fldiv->___xxtofl

Critical Paths under _main in BANK0

    _main->_disp_num
    _disp_num->___fldiv
    _disp_num->___fltol
    ___fltol->___flmul
    ___fldiv->___xxtofl

Critical Paths under _main in BANK1

    None.

Critical Paths under _main in BANK3

    None.

Critical Paths under _main in BANK2

    None.

Call Graph Tables:

 ---------------------------------------------------------------------------------
 (Depth) Function   	        Calls       Base Space   Used Autos Params    Refs
 ---------------------------------------------------------------------------------
 (0) _main                                                12    12      0    7385
                                             46 BANK0     12    12      0
                            ___fldiv
                             ___wmul
                           ___xxtofl
                           _disp_num
                            _get_num
                             _lcdcmd
                            _lcddata
                            _lcdinit
                           _scan_key
 ---------------------------------------------------------------------------------
 (1) _scan_key                                             5     5      0      95
                                              4 COMMON     5     5      0
                            _lcddata
 ---------------------------------------------------------------------------------
 (1) _lcdinit                                              3     3      0      22
                                              4 COMMON     3     3      0
                             _lcdcmd
 ---------------------------------------------------------------------------------
 (1) _get_num                                              5     3      2      22
                                              0 COMMON     5     3      2
 ---------------------------------------------------------------------------------
 (1) _disp_num                                            14    10      4    4485
                                             32 BANK0     14    10      4
                            ___awdiv
                            ___awmod
                             ___bmul
                            ___fldiv (ARG)
                            ___flmul
                            ___fltol
                             ___wmul (ARG)
                           ___xxtofl (ARG)
                             _lcdcmd
                            _lcddata
 ---------------------------------------------------------------------------------
 (2) _lcddata                                              4     4      0      22
                                              0 COMMON     4     4      0
 ---------------------------------------------------------------------------------
 (2) _lcdcmd                                               4     4      0      22
                                              0 COMMON     4     4      0
 ---------------------------------------------------------------------------------
 (2) ___fltol                                             11     7      4     381
                                             21 BANK0     11     7      4
                            ___flmul (ARG)
 ---------------------------------------------------------------------------------
 (2) ___flmul                                             26    18      8    2417
                                              9 COMMON     5     5      0
                                              0 BANK0     21    13      8
                          __Umul8_16
 ---------------------------------------------------------------------------------
 (3) __Umul8_16                                            9     7      2     799
                                              0 COMMON     9     7      2
 ---------------------------------------------------------------------------------
 (2) ___bmul                                               4     3      1     168
                                              0 COMMON     4     3      1
 ---------------------------------------------------------------------------------
 (2) ___awmod                                              7     3      4     448
                                              0 COMMON     7     3      4
 ---------------------------------------------------------------------------------
 (2) ___awdiv                                              9     5      4     452
                                              0 COMMON     9     5      4
 ---------------------------------------------------------------------------------
 (1) ___xxtofl                                            14    10      4     702
                                              6 COMMON     8     4      4
                                              0 BANK0      6     6      0
                             ___wmul (ARG)
 ---------------------------------------------------------------------------------
 (1) ___wmul                                               6     2      4     244
                                              0 COMMON     6     2      4
 ---------------------------------------------------------------------------------
 (1) ___fldiv                                             26    18      8    1273
                                              6 BANK0     26    18      8
                           ___xxtofl (ARG)
 ---------------------------------------------------------------------------------
 Estimated maximum stack depth 3
 ---------------------------------------------------------------------------------

 Call Graph Graphs:

 _main (ROOT)
   ___fldiv
     ___xxtofl (ARG)
       ___wmul (ARG)
   ___wmul
   ___xxtofl
     ___wmul (ARG)
   _disp_num
     ___awdiv
     ___awmod
     ___bmul
     ___fldiv (ARG)
       ___xxtofl (ARG)
         ___wmul (ARG)
     ___flmul (ARG)
       __Umul8_16
     ___fltol (ARG)
       ___flmul (ARG)
         __Umul8_16
     ___wmul (ARG)
     ___xxtofl (ARG)
       ___wmul (ARG)
     _lcdcmd (ARG)
     _lcddata (ARG)
   _get_num
   _lcdcmd
   _lcddata
   _lcdinit
     _lcdcmd
   _scan_key
     _lcddata

 Address spaces:
Name               Size   Autos  Total    Cost      Usage
BANK3               60      0       0       9        0.0%
BITBANK3            60      0       0       8        0.0%
SFR3                 0      0       0       4        0.0%
BITSFR3              0      0       0       4        0.0%
BANK2               60      0       0      11        0.0%
BITBANK2            60      0       0      10        0.0%
SFR2                 0      0       0       5        0.0%
BITSFR2              0      0       0       5        0.0%
BANK1               50      0      27       7       48.8%
BITBANK1            50      0       0       6        0.0%
SFR1                 0      0       0       2        0.0%
BITSFR1              0      0       0       2        0.0%
BANK0               50     3A      46       5       87.5%
BITBANK0            50      0       0       4        0.0%
SFR0                 0      0       0       1        0.0%
BITSFR0              0      0       0       1        0.0%
COMMON               E      E       E       1      100.0%
BITCOMMON            E      0       0       0        0.0%
CODE                 0      0       0       0        0.0%
DATA                 0      0      7B      12        0.0%
ABS                  0      0      7B       3        0.0%
NULL                 0      0       0       0        0.0%
STACK                0      0       0       2        0.0%
EEDATA             100      0       0       0        0.0%


Microchip Technology PIC Macro Assembler V2.10 build 88905656 
Symbol Table                                                                                   Fri Dec 27 00:38:54 2019

           ___fldiv@aexp 003F             ___fldiv@bexp 003E                        _s 00BA  
                      pc 0002             ___fldiv@sign 0037           ___bmul@product 0072  
                     l55 0C40                       l91 00AF                       l84 0ADB  
                     l87 0B00             ___awdiv@sign 0076                       _s1 00AD  
                     _s2 005A                       _s3 00A0                       fsr 0004  
    ___wmul@multiplicand 0072      __Umul8_16@word_mpld 0076                      l120 0BA4  
                    l112 0BDB                      l121 0BA9                      l122 0BAE  
                    l114 0B86                      l115 0B8B                      l107 0294  
                    l116 0B90                      l213 0A9E                      l117 0B95  
                    l126 0DD3                      l118 0B9A                      l215 0AB6  
                    l127 0E22                      l119 0B9F                      l406 0094  
                    l239 0A91                      l409 00A9                      l602 07E0  
                    l366 0CA7                      l614 07D4                      l640 0CCC  
                    l608 074C                      l562 0E7F                      l642 0D63  
                    l379 0B80                      l564 0FFF                      l653 0D2D  
                    l661 0B27                      l654 0D39                      l646 0D11  
                    l399 00A9                      l584 0FE3                      l586 0FF3  
                    l578 0F71                      l659 0B15                      _RC0 0038  
                    _RC1 0039                      _RC2 003A                      _RC3 003B  
                    _RC4 003C                      _RC5 003D                      _RC6 003E  
                    _RC7 003F                      _RD6 0046                      _RD7 0047  
     disp_num@TenthDigit 004B              lcdcmd@value 0073                      fsr0 0004  
                    indf 0000             ___awmod@sign 0076             ___flmul@aexp 002D  
           ___flmul@bexp 002E             ___flmul@sign 0028             ___flmul@temp 0033  
           ___flmul@prod 002F              disp_num@num 0040             ___fltol@exp1 003F  
                   l2001 0179                     l2011 019A                     l2003 017D  
                   l2101 0293                     l2021 01BB                     l2005 0183  
                   l2013 019E                     l2031 01C5                     l2015 01A4  
                   l2023 01BF                     l2007 0189                     l2201 0E57  
                   l2105 0B82                     l2033 01C9                     l2041 01E4  
                   l2025 01C2                     l2017 01AA                     l2009 0196  
                   l2211 0E6C                     l2203 0E5D                     l2107 0B83  
                   l2043 01EA                     l2051 0205                     l2035 01CF  
                   l2027 01C3                     l2019 01B7                     l2301 0FB9  
                   l2221 0E93                     l2213 0E74                     l2205 0E61  
                   l2133 0BB3                     l2053 020B                     l2061 0226  
                   l2045 01F0                     l2037 01DC                     l2029 01C4  
                   l2311 0FE9                     l2303 0FC7                     l2223 0E97  
                   l2215 0E75                     l2207 0E62                     l2151 0DA7  
                   l2143 0D64                     l2063 022C                     l2071 0247  
                   l2055 0211                     l2047 01FD                     l2039 01E0  
                   l2313 0FED                     l2305 0FD6                     l2241 0ED8  
                   l2233 0EAE                     l2209 0E67                     l2217 0E77  
                   l2321 0CAB                     l2161 0E0E                     l2153 0DAC  
                   l2145 0D64                     l2081 0251                     l2073 024A  
                   l2065 0232                     l2057 021E                     l2049 0201  
                   l2401 031F                     l2315 0FEF                     l2307 0FDA  
                   l2251 0EF6                     l2243 0EDA                     l2235 0EC0  
                   l2219 0E87                     l2227 0EA0                     l2171 0AA5  
                   l2323 0CB0                     l2163 0E1C                     l2155 0DB2  
                   l2147 0D90                     l2091 0272                     l2083 0257  
                   l2075 024B                     l2067 023F                     l2059 0222  
                   l2411 0348                     l2403 0324                     l2309 0FE2  
                   l2245 0EDF                     l2253 0EFF                     l2261 0F24  
                   l2237 0EC8                     l2229 0EA5                     l2181 0E2A  
                   l2173 0AAC                     l2165 0A92                     l2341 0CFA  
                   l2333 0CDD                     l2325 0CB4                     l1701 0B28  
                   l1621 0B1E                     l1613 0B02                     l2157 0DC7  
                   l2149 0DA3                     l2093 0278                     l2085 0264  
                   l2077 024C                     l2069 0243                     l2421 036E  
                   l2413 0354                     l2405 032D                     l2271 0F41  
                   l2263 0F2A                     l2255 0F11                     l2247 0EF1  
                   l2239 0ED0                     l2191 0E3F                     l2183 0E30  
                   l2175 0AB2                     l2167 0A94                     l2351 0D31  
                   l2343 0D08                     l2335 0CE2                     l2327 0CC4  
                   l1711 0B38                     l1703 0B29                     l1623 0B23  
                   l1615 0B04                     l1631 0ABD                     l2159 0DCC  
                   l2095 0285                     l2087 0268                     l2079 024D  
                   l2431 038F                     l2423 0376                     l2415 035A  
                   l2407 0335                     l2281 0F56                     l2273 0F42  
                   l2265 0F32                     l2257 0F12                     l2249 0EF5  
                   l2193 0E47                     l2185 0E34                     l2169 0A98  
                   l2361 0D5B                     l2353 0D3B                     l2345 0D18  
                   l2337 0CEF                     l2329 0CD4                     l1721 0B51  
                   l1713 0B3D                     l1705 0B2D                     l1617 0B0B  
                   l1801 04BE                     l1633 0ACB                     l1641 0AF0  
                   l2097 0289                     l2089 026C                     l2441 03CF  
                   l2433 0397                     l2425 037F                     l2417 0360  
                   l2409 033E                     l2291 0F7B                     l2283 0F5A  
                   l2275 0F4B                     l2267 0F34                     l2259 0F20  
                   l2195 0E48                     l2187 0E35                     l2179 0E23  
                   l2355 0D51                     l2347 0D23                     l2339 0CF6  
                   l1723 0B55                     l1715 0B43                     l1731 0B72  
                   l1707 0B32                     l1651 0A89                     l1643 0A7E  
                   l1619 0B0F                     l1811 04DA                     l1803 04C3  
                   l1627 0AB8                     l1635 0ADD                     l2099 028D  
                   l2507 046F                     l2443 03F2                     l2435 039F  
                   l2427 0381                     l2419 0365                     l2371 029B  
                   l2293 0F89                     l2285 0F6E                     l2269 0F3D  
                   l2277 0F51                     l2189 0E3A                     l2197 0E4A  
                   l2357 0D56                     l2349 0D27                     l1661 0C46  
                   l1733 0B77                     l1725 0B5F                     l1717 0B46  
                   l1709 0B34                     l1653 0A90                     l1645 0A7F  
                   l1901 07B8                     l1821 04FD                     l1813 04DF  
                   l1805 04C8                     l1741 003B                     l1629 0ABC  
                   l1637 0AE1                     l2509 0BBB                     l2445 041E  
                   l2437 03A5                     l2429 0387                     l2381 02C1  
                   l2373 029C                     l2365 0295                     l2295 0F8D  
                   l2279 0F55                     l2199 0E52                     l2359 0D5A  
                   l1671 0C5A                     l1663 0C4B                     l1735 0B7C  
                   l1727 0B65                     l1719 0B4D                     l1647 0A83  
                   l1911 07D8                     l1903 07BA                     l1831 058B  
                   l1823 050A                     l1815 04E4                     l1807 04D0  
                   l1751 0062                     l1639 0AE2                     l2439 03AC  
                   l2391 02F0                     l2383 02C9                     l2375 02AE  
                   l2367 0299                     l2297 0FA6                     l2289 0F76  
                   l1681 0C70                     l1673 0C5C                     l1665 0C4D  
                   l1657 0C41                     l1729 0B6C                     l1649 0A87  
                   l1905 07C8                     l1841 05ED                     l1833 05A7  
                   l1825 0527                     l1809 04D2                     l1761 0070  
                   l1753 0064                     l1745 0044                     l1921 0C02  
                   l2449 0465                     l2393 02F5                     l2385 02D4  
                   l2377 02B3                     l2369 029A                     l2299 0FAC  
                   l1691 0C93                     l1683 0C74                     l1675 0C62  
                   l1667 0C51                     l1659 0C42                     l1907 07CC  
                   l1851 067D                     l1843 060A                     l1835 05B0  
                   l1827 0543                     l1819 04ED                     l1771 0099  
                   l1755 0068                     l1763 0082                     l1747 0059  
                   l1739 002E                     l1931 0C34                     l1923 0C0F  
                   l1915 0BDC                     l2395 02FE                     l2387 02DE  
                   l2379 02B8                     l1685 0C85                     l1677 0C65  
                   l1693 0C99                     l1669 0C56                     l1909 07CD  
                   l1861 070F                     l1853 06AA                     l1845 0623  
                   l1837 05C0                     l1829 056F                     l1781 0491  
                   l1773 009E                     l1749 005A                     l1933 0C3A  
                   l1925 0C22                     l1917 0BE9                     l1941 00CC  
                   l2397 0306                     l2389 02EA                     l1695 0C9E  
                   l1687 0C8B                     l1679 0C6C                     l1863 0718  
                   l1871 072C                     l1855 06D0                     l1847 0640  
                   l1839 05DD                     l1791 04A6                     l1783 0492  
                   l1775 0480                     l1927 0C28                     l1919 0BEF  
                   l1951 00ED                     l1943 00D0                     l1935 00AA  
                   l2399 030F                     l1697 0CA3                     l1689 0C8C  
                   l1873 0730                     l1865 071C                     l1857 06F8  
                   l1849 066D                     l1793 04AE                     l1785 0497  
                   l1777 0487                     l1769 0089                     l1929 0C2E  
                   l1961 010E                     l1953 00F1                     l1937 00B9  
                   l1945 00D4                     l1891 0781                     l1883 0751  
                   l1875 0731                     l1867 071D                     l1859 0701  
                   l1795 04B3                     l1787 049C                     l1779 048D  
                   l1971 012F                     l1963 0112                     l1947 00DA  
                   l1955 00F5                     l1939 00BF                     l1885 0756  
                   l1893 0787                     l1877 0735                     l1869 0726  
                   l1797 04B9                     l1789 04A4                     l1981 013C  
                   l1973 0133                     l1957 00FB                     l1965 0116  
                   l1949 00E0                     l1895 0794                     l1887 0764  
                   l1879 0749                     l1799 04BD                     l1991 0158  
                   l1983 013D                     l1967 011C                     l1975 0137  
                   l1959 0101                     l1897 079F                     l1889 0768  
                   l1985 0141                     l1993 015C                     l1977 013A  
                   l1969 0122                     l1899 07AE                     l1995 0162  
                   l1987 0147                     l1979 013B                     l1997 0168  
                   l1989 0154                     l1999 0175                     u2010 0730  
                   u2011 072F                     u2100 07CC                     u2020 0735  
                   u2101 07CB                     u2021 0734                     u2005 071F  
                   u2030 0749                     u2110 00B9                     u2031 0748  
                   u2111 00B8                     u1400 0B0F                     u2040 0750  
                   u2200 01EA                     u2120 00DA                     u1401 0B0E  
                   u2041 074F                     u2201 01E9                     u2121 00D9  
                   u2050 0756                     u2210 020B                     u2130 00FB  
                   u2051 0755                     u2211 020A                     u2131 00FA  
                   u1420 0B23                     u2060 0768                     u2220 022C  
                   u2140 011C                     u1421 0B22                     u2061 0767  
                   u2221 022B                     u2141 011B                     u2310 0AB2  
                   u1510 0C85                     u1430 0A83                     u2070 0777  
                   u2230 0251                     u2150 0141                     u2311 0AB1  
                   u1511 0C84                     u1431 0A82                     u1415 0B16  
                   u3007 0AF9                     u2231 0250                     u2151 0140  
                   u2400 0EDF                     u2320 0E34                     u1600 0B5F  
                   u1440 0A90                     u2080 0794                     u2240 0272  
                   u2160 0162                     u2401 0EDE                     u2321 0E33  
                   u2305 0AA6                     u1505 0C75                     u1601 0B5E  
                   u1441 0A8F                     u2081 0793                     u3017 0AC4  
                   u2241 0271                     u2161 0161                     u2330 0E3A  
                   u1530 0C99                     u1450 0C46                     u2090 07AE  
                   u2250 0293                     u2170 0183                     u2331 0E39  
                   u1531 0C98                     u1515 0C81                     u1451 0C45  
                   u2091 07AD                     u2075 0772                     u3027 0AD4  
                   u2251 0292                     u2171 0182                     u2340 0E3F  
                   u1540 0C9E                     u1460 0C51                     u1620 0B72  
                   u1700 0088                     u2260 0DA7                     u2180 01A4  
                   u2341 0E3E                     u1541 0C9D                     u1525 0C8D  
                   u1461 0C50                     u1621 0B71                     u1605 0B5B  
                   u2085 0790                     u1701 0087                     u2261 0DA6  
                   u2181 01A3                     u2510 0F55                     u2430 0EF5  
                   u2350 0E61                     u1470 0C62                     u1630 0B77  
                   u1550 0B2D                     u2270 0DCC                     u2190 01C9  
                   u2511 0F54                     u2431 0EF4                     u2415 0EE1  
                   u2351 0E60                     u1471 0C61                     u1631 0B76  
                   u1615 0B66                     u1551 0B2C                     u2095 07AA  
                   u2271 0DCB                     u2191 01C8                     u2600 0FED  
                   u2520 0F5A                     u2360 0E67                     u2280 0A98  
                   u1560 0B38                     u1800 04DF                     u1720 0099  
                   u1640 003B                     u2601 0FEC                     u2521 0F59  
                   u2505 0F44                     u2425 0EEA                     u2361 0E66  
                   u2281 0A97                     u1561 0B37                     u1801 04DE  
                   u1721 0098                     u1641 003A                     u2530 0F6E  
                   u2450 0F11                     u2370 0E6C                     u2610 0CB0  
                   u1490 0C74                     u1570 0B43                     u1810 04E4  
                   u1730 009E                     u1650 0052                     u2531 0F6D  
                   u2451 0F10                     u2371 0E6B                     u2611 0CAF  
                   u1491 0C73                     u1571 0B42                     u1811 04E3  
                   u1731 009D                     u1715 008B                     u2540 0F75  
                   u2460 0F2A                     u2380 0E87                     u2700 0D2D  
                   u2620 0CB4                     u1740 0491                     u1660 0068  
                   u2541 0F74                     u2461 0F29                     u2445 0EF8  
                   u2381 0E86                     u2701 0D2C                     u2621 0CB3  
                   u1485 0C66                     u1901 0632                     u1821 0535  
                   u1741 0490                     u1661 0067                     u2550 0F7B  
                   u2470 0F32                     u2390 0EA5                     u2710 0D31  
                   u2630 0CD4                     u1590 0B55                     u1902 0639  
                   u1822 053C                     u1750 0497                     u1670 006F  
                   u2551 0F7A                     u2471 0F31                     u2455 0F0D  
                   u2391 0EA4                     u2295 0A9F                     u2711 0D30  
                   u2631 0CD3                     u1591 0B54                     u1911 065F  
                   u1903 0640                     u1831 0551                     u1823 0543  
                   u1751 0496                     u1671 006E                     u1655 004D  
                   u2560 0F8D                     u2720 0D46                     u1912 0666  
                   u1832 0558                     u1760 049C                     u2561 0F8C  
                   u1585 0B47                     u1921 068C                     u1913 066D  
                   u1841 057D                     u1833 055F                     u1761 049B  
                   u2570 0F9C                     u2490 0F41                     u2730 0D56  
                   u2650 0CF5                     u1930 06B6                     u1922 0693  
                   u1842 0584                     u1770 04BD                     u1690 0081  
                   u2491 0F40                     u2731 0D55                     u2651 0CF4  
                   u1923 069A                     u1851 0599                     u1843 058B  
                   u1771 04BC                     u1691 0080                     u2580 0FB9  
                   u2740 0D5A                     u1852 05A0                     u1780 04C3  
                   u2581 0FB8                     u2485 0F36                     u2741 0D59  
                   u2725 0D41                     u2645 0CE7                     u1941 06C2  
                   u1853 05A7                     u1781 04C2                     u1685 0071  
                   u2590 0FD6                     u2670 0D17                     u1950 06DE  
                   u1942 06C9                     u1790 04C8                     u2750 02D4  
                   u2591 0FD5                     u2575 0F97                     u2671 0D16  
                   u1943 06D0                     u1935 06B1                     u1871 05CF  
                   u1791 04C7                     u2807 00C5                     u2751 02D3  
                   u1872 05D6                     u2760 030F                     u2585 0FB5  
                   u2665 0D09                     u1961 06EA                     u1881 05FC  
                   u1873 05DD                     u1865 05A9                     u2817 00E6  
                   u2761 030E                     u2690 0D27                     u1962 06F1  
                   u1882 0603                     u2770 033E                     u2595 0FD2  
                   u2691 0D26                     u1963 06F8                     u1955 06D9  
                   u1883 060A                     u2907 0217                     u2827 0107  
                   u2771 033D                     u2780 037F                     u2685 0D1C  
                   u2917 0238                     u2837 0128                     u2781 037E  
                   u1990 071C                     u1991 071B                     u1975 06FA  
                   u1895 060C                     u2927 025D                     u2847 014D  
                   u1985 0711                     u2937 027E                     u2857 016E  
                   u2947 0BE2                     u2867 018F                     u2957 0BF5  
                   u2877 01B0                     u2797 02A4                     u2967 0C08  
                   u2887 01D5                     u2977 0C1B                     u2897 01F6  
                   u2987 0E16                     u2997 0AE9                     _main 0295  
           lcddata@value 0073                     btemp 007E                     start 0000  
        ___fldiv@new_exp 0038        ___bmul@multiplier 0073             disp_num@numb 004C  
          ___fltol@sign1 003E                    ?_main 0070          __end_of___fldiv 1000  
        __end_of___awdiv 0CA8          __end_of___awmod 0B81          __end_of___flmul 07E1  
        __end_of___fltol 00AA          ___awdiv@divisor 0070          ___awdiv@counter 0075  
                  _PORTB 0006                    _PORTC 0007                    _TRISB 0086  
                  _TRISC 0087          __end_of_lcddata 0B01          __end_of_get_num 0BDC  
        __end_of_lcdinit 0C41                    pclath 000A                    status 0003  
                  wtemp0 007E          __initialization 07E1             __end_of_main 0480  
                 ??_main 004E         ___awdiv@dividend 0072                   _TRISD6 0446  
                 _TRISD7 0447         __end_of___xxtofl 0D64         __end_of_disp_num 0E23  
                 ___bmul 0A7D                   ___wmul 0A92                ??___fldiv 002E  
              ??___awdiv 0074                ??___awmod 0074                ??___flmul 0079  
              ??___fltol 0039                   _lcdcmd 0AB7         ___awdiv@quotient 0077  
        ___awmod@divisor 0070         __end_of_scan_key 0295          ___awmod@counter 0075  
                 main@k1 0056                   main@k2 0054                   main@ke 0051  
              ??_lcddata 0070                ??_get_num 0072                ??_lcdinit 0074  
     __size_of__Umul8_16 0027             ___xxtofl@arg 0022             ___xxtofl@exp 0021  
           ___xxtofl@val 0076  __end_of__initialization 07FC               ___fltol@f1 0035  
    ___bmul@multiplicand 0070           __pcstackCOMMON 0070             __pidataBANK0 0A5E  
           __pidataBANK1 0007        __end_of__Umul8_16 0B28               __pmaintext 0295  
                ?___bmul 0070                  ?___wmul 0070                  ?_lcdcmd 0070  
              ?___xxtofl 0076                ?_disp_num 0040                ?_scan_key 0070  
        __size_of___bmul 0015                  ___fldiv 0E23                  ___awdiv 0C41  
                ___awmod 0B28                  ___flmul 0480                  ___fltol 002E  
        __size_of___wmul 0025          __size_of_lcdcmd 0025                  __ptext1 00AA  
                __ptext2 0BDC                  __ptext3 0B81                  __ptext4 0D64  
                __ptext5 0ADC                  __ptext6 0AB7                  __ptext7 002E  
                __ptext8 0480                  __ptext9 0B01                  _lcddata 0ADC  
                _get_num 0B81                  _lcdinit 0BDC               ??___xxtofl 007A  
       ___awmod@dividend 0072                  main@key 0052               ??_disp_num 0044  
   end_of_initialization 07FC               ??_scan_key 0074            ___xxtofl@sign 0020  
            ___fldiv@grs 003A              ___fldiv@rem 0033              ___flmul@grs 0029  
      disp_num@UnitDigit 0049           __end_of___bmul 0A92           __end_of___wmul 0AB7  
         __end_of_lcdcmd 0ADC      start_initialization 07E1                 ??___bmul 0071  
               ??___wmul 0074               init_fetch0 0A6A                __Umul8_16 0B01  
               ??_lcdcmd 0070              __pdataBANK0 005A              __pdataBANK1 00A0  
              ___fldiv@a 0026                ___fldiv@b 002A                ___flmul@a 0024  
              ___flmul@b 0020                ___latbits 0002            __pcstackBANK0 0020  
      __size_of___xxtofl 00BC          disp_num@decimal 004A        __size_of_disp_num 00BF  
      __size_of_scan_key 01EB                 ?___fldiv 0026                 ?___awdiv 0070  
               ?___awmod 0070                 ?___flmul 0020                 ?___fltol 0035  
             ?__Umul8_16 0070                 ?_lcddata 0070                 ?_get_num 0070  
               ?_lcdinit 0070           ___wmul@product 0074        ___wmul@multiplier 0070  
              get_num@ch 0074                disp_num@j 0047                main@count 0058  
            ??__Umul8_16 0072         __size_of___fldiv 01DD         __size_of___awdiv 0067  
       __size_of___awmod 0059         __size_of___flmul 0361         __size_of___fltol 007C  
              scan_key@c 0078                scan_key@d 0077         __size_of_lcddata 0025  
       __size_of_get_num 005B         __size_of_lcdinit 0065                 ___xxtofl 0CA8  
               __ptext10 0A7D                 __ptext11 0B28                 __ptext12 0C41  
               __ptext13 0CA8                 __ptext14 0A92                 __ptext15 0E23  
               _disp_num 0D64            __size_of_main 01EB                 _scan_key 00AA  
               main@key1 0053                 init_ram0 0A6E   __Umul8_16@multiplicand 0070  
   __Umul8_16@multiplier 0078        __Umul8_16@product 0074  
